ARM GAS  C:\Users\gizmo\AppData\Local\Temp\cc1VMdzg.s 			page 1


   1              		.cpu cortex-m0
   2              		.fpu softvfp
   3              		.eabi_attribute 20, 1
   4              		.eabi_attribute 21, 1
   5              		.eabi_attribute 23, 3
   6              		.eabi_attribute 24, 1
   7              		.eabi_attribute 25, 1
   8              		.eabi_attribute 26, 1
   9              		.eabi_attribute 30, 4
  10              		.eabi_attribute 34, 0
  11              		.eabi_attribute 18, 4
  12              		.code	16
  13              		.file	"Timer_1.c"
  14              		.text
  15              	.Ltext0:
  16              		.cfi_sections	.debug_frame
  17              		.section	.text.Timer_1_Init,"ax",%progbits
  18              		.align	1
  19              		.global	Timer_1_Init
  20              		.code	16
  21              		.thumb_func
  22              		.type	Timer_1_Init, %function
  23              	Timer_1_Init:
  24              	.LFB0:
  25              		.file 1 ".\\Generated_Source\\PSoC4\\Timer_1.c"
   1:.\Generated_Source\PSoC4/Timer_1.c **** /*******************************************************************************
   2:.\Generated_Source\PSoC4/Timer_1.c **** * File Name: Timer_1.c
   3:.\Generated_Source\PSoC4/Timer_1.c **** * Version 2.0
   4:.\Generated_Source\PSoC4/Timer_1.c **** *
   5:.\Generated_Source\PSoC4/Timer_1.c **** * Description:
   6:.\Generated_Source\PSoC4/Timer_1.c **** *  This file provides the source code to the API for the Timer_1
   7:.\Generated_Source\PSoC4/Timer_1.c **** *  component
   8:.\Generated_Source\PSoC4/Timer_1.c **** *
   9:.\Generated_Source\PSoC4/Timer_1.c **** * Note:
  10:.\Generated_Source\PSoC4/Timer_1.c **** *  None
  11:.\Generated_Source\PSoC4/Timer_1.c **** *
  12:.\Generated_Source\PSoC4/Timer_1.c **** ********************************************************************************
  13:.\Generated_Source\PSoC4/Timer_1.c **** * Copyright 2013-2014, Cypress Semiconductor Corporation.  All rights reserved.
  14:.\Generated_Source\PSoC4/Timer_1.c **** * You may use this file only in accordance with the license, terms, conditions,
  15:.\Generated_Source\PSoC4/Timer_1.c **** * disclaimers, and limitations in the end user license agreement accompanying
  16:.\Generated_Source\PSoC4/Timer_1.c **** * the software package with which this file was provided.
  17:.\Generated_Source\PSoC4/Timer_1.c **** *******************************************************************************/
  18:.\Generated_Source\PSoC4/Timer_1.c **** 
  19:.\Generated_Source\PSoC4/Timer_1.c **** #include "Timer_1.h"
  20:.\Generated_Source\PSoC4/Timer_1.c **** 
  21:.\Generated_Source\PSoC4/Timer_1.c **** uint8 Timer_1_initVar = 0u;
  22:.\Generated_Source\PSoC4/Timer_1.c **** 
  23:.\Generated_Source\PSoC4/Timer_1.c **** 
  24:.\Generated_Source\PSoC4/Timer_1.c **** /*******************************************************************************
  25:.\Generated_Source\PSoC4/Timer_1.c **** * Function Name: Timer_1_Init
  26:.\Generated_Source\PSoC4/Timer_1.c **** ********************************************************************************
  27:.\Generated_Source\PSoC4/Timer_1.c **** *
  28:.\Generated_Source\PSoC4/Timer_1.c **** * Summary:
  29:.\Generated_Source\PSoC4/Timer_1.c **** *  Initialize/Restore default Timer_1 configuration.
  30:.\Generated_Source\PSoC4/Timer_1.c **** *
  31:.\Generated_Source\PSoC4/Timer_1.c **** * Parameters:
  32:.\Generated_Source\PSoC4/Timer_1.c **** *  None
ARM GAS  C:\Users\gizmo\AppData\Local\Temp\cc1VMdzg.s 			page 2


  33:.\Generated_Source\PSoC4/Timer_1.c **** *
  34:.\Generated_Source\PSoC4/Timer_1.c **** * Return:
  35:.\Generated_Source\PSoC4/Timer_1.c **** *  None
  36:.\Generated_Source\PSoC4/Timer_1.c **** *
  37:.\Generated_Source\PSoC4/Timer_1.c **** *******************************************************************************/
  38:.\Generated_Source\PSoC4/Timer_1.c **** void Timer_1_Init(void)
  39:.\Generated_Source\PSoC4/Timer_1.c **** {
  26              		.loc 1 39 0
  27              		.cfi_startproc
  40:.\Generated_Source\PSoC4/Timer_1.c **** 
  41:.\Generated_Source\PSoC4/Timer_1.c ****     /* Set values from customizer to CTRL */
  42:.\Generated_Source\PSoC4/Timer_1.c ****     #if (Timer_1__QUAD == Timer_1_CONFIG)
  43:.\Generated_Source\PSoC4/Timer_1.c ****         Timer_1_CONTROL_REG = Timer_1_CTRL_QUAD_BASE_CONFIG;
  44:.\Generated_Source\PSoC4/Timer_1.c ****         
  45:.\Generated_Source\PSoC4/Timer_1.c ****         /* Set values from customizer to CTRL1 */
  46:.\Generated_Source\PSoC4/Timer_1.c ****         Timer_1_TRIG_CONTROL1_REG  = Timer_1_QUAD_SIGNALS_MODES;
  47:.\Generated_Source\PSoC4/Timer_1.c **** 
  48:.\Generated_Source\PSoC4/Timer_1.c ****         /* Set values from customizer to INTR */
  49:.\Generated_Source\PSoC4/Timer_1.c ****         Timer_1_SetInterruptMode(Timer_1_QUAD_INTERRUPT_MASK);
  50:.\Generated_Source\PSoC4/Timer_1.c ****         
  51:.\Generated_Source\PSoC4/Timer_1.c ****          /* Set other values */
  52:.\Generated_Source\PSoC4/Timer_1.c ****         Timer_1_SetCounterMode(Timer_1_COUNT_DOWN);
  53:.\Generated_Source\PSoC4/Timer_1.c ****         Timer_1_WritePeriod(Timer_1_QUAD_PERIOD_INIT_VALUE);
  54:.\Generated_Source\PSoC4/Timer_1.c ****         Timer_1_WriteCounter(Timer_1_QUAD_PERIOD_INIT_VALUE);
  55:.\Generated_Source\PSoC4/Timer_1.c ****     #endif  /* (Timer_1__QUAD == Timer_1_CONFIG) */
  56:.\Generated_Source\PSoC4/Timer_1.c **** 
  57:.\Generated_Source\PSoC4/Timer_1.c ****     #if (Timer_1__TIMER == Timer_1_CONFIG)
  58:.\Generated_Source\PSoC4/Timer_1.c ****         Timer_1_CONTROL_REG = Timer_1_CTRL_TIMER_BASE_CONFIG;
  28              		.loc 1 58 0
  29 0000 8022     		mov	r2, #128
  30 0002 084B     		ldr	r3, .L2
  31 0004 9204     		lsl	r2, r2, #18
  32 0006 1A60     		str	r2, [r3]
  59:.\Generated_Source\PSoC4/Timer_1.c ****         
  60:.\Generated_Source\PSoC4/Timer_1.c ****         /* Set values from customizer to CTRL1 */
  61:.\Generated_Source\PSoC4/Timer_1.c ****         Timer_1_TRIG_CONTROL1_REG  = Timer_1_TIMER_SIGNALS_MODES;
  33              		.loc 1 61 0
  34 0008 0C22     		mov	r2, #12
  35 000a 074B     		ldr	r3, .L2+4
  62:.\Generated_Source\PSoC4/Timer_1.c ****     
  63:.\Generated_Source\PSoC4/Timer_1.c ****         /* Set values from customizer to INTR */
  64:.\Generated_Source\PSoC4/Timer_1.c ****         Timer_1_SetInterruptMode(Timer_1_TC_INTERRUPT_MASK);
  65:.\Generated_Source\PSoC4/Timer_1.c ****         
  66:.\Generated_Source\PSoC4/Timer_1.c ****         /* Set other values from customizer */
  67:.\Generated_Source\PSoC4/Timer_1.c ****         Timer_1_WritePeriod(Timer_1_TC_PERIOD_VALUE );
  68:.\Generated_Source\PSoC4/Timer_1.c **** 
  69:.\Generated_Source\PSoC4/Timer_1.c ****         #if (Timer_1__COMPARE == Timer_1_TC_COMP_CAP_MODE)
  70:.\Generated_Source\PSoC4/Timer_1.c ****             Timer_1_WriteCompare(Timer_1_TC_COMPARE_VALUE);
  71:.\Generated_Source\PSoC4/Timer_1.c **** 
  72:.\Generated_Source\PSoC4/Timer_1.c ****             #if (1u == Timer_1_TC_COMPARE_SWAP)
  73:.\Generated_Source\PSoC4/Timer_1.c ****                 Timer_1_SetCompareSwap(1u);
  74:.\Generated_Source\PSoC4/Timer_1.c ****                 Timer_1_WriteCompareBuf(Timer_1_TC_COMPARE_BUF_VALUE);
  75:.\Generated_Source\PSoC4/Timer_1.c ****             #endif  /* (1u == Timer_1_TC_COMPARE_SWAP) */
  76:.\Generated_Source\PSoC4/Timer_1.c ****         #endif  /* (Timer_1__COMPARE == Timer_1_TC_COMP_CAP_MODE) */
  77:.\Generated_Source\PSoC4/Timer_1.c **** 
  78:.\Generated_Source\PSoC4/Timer_1.c ****         /* Initialize counter value */
  79:.\Generated_Source\PSoC4/Timer_1.c ****         #if (Timer_1_CY_TCPWM_V2 && Timer_1_TIMER_UPDOWN_CNT_USED && !Timer_1_CY_TCPWM_4000)
ARM GAS  C:\Users\gizmo\AppData\Local\Temp\cc1VMdzg.s 			page 3


  80:.\Generated_Source\PSoC4/Timer_1.c ****             Timer_1_WriteCounter(1u);
  81:.\Generated_Source\PSoC4/Timer_1.c ****         #elif(Timer_1__COUNT_DOWN == Timer_1_TC_COUNTER_MODE)
  82:.\Generated_Source\PSoC4/Timer_1.c ****             Timer_1_WriteCounter(Timer_1_TC_PERIOD_VALUE);
  83:.\Generated_Source\PSoC4/Timer_1.c ****         #else
  84:.\Generated_Source\PSoC4/Timer_1.c ****             Timer_1_WriteCounter(0u);
  85:.\Generated_Source\PSoC4/Timer_1.c ****         #endif /* (Timer_1_CY_TCPWM_V2 && Timer_1_TIMER_UPDOWN_CNT_USED && !Timer_1_CY_TCPWM_4000) 
  86:.\Generated_Source\PSoC4/Timer_1.c ****     #endif  /* (Timer_1__TIMER == Timer_1_CONFIG) */
  87:.\Generated_Source\PSoC4/Timer_1.c **** 
  88:.\Generated_Source\PSoC4/Timer_1.c ****     #if (Timer_1__PWM_SEL == Timer_1_CONFIG)
  89:.\Generated_Source\PSoC4/Timer_1.c ****         Timer_1_CONTROL_REG = Timer_1_CTRL_PWM_BASE_CONFIG;
  90:.\Generated_Source\PSoC4/Timer_1.c **** 
  91:.\Generated_Source\PSoC4/Timer_1.c ****         #if (Timer_1__PWM_PR == Timer_1_PWM_MODE)
  92:.\Generated_Source\PSoC4/Timer_1.c ****             Timer_1_CONTROL_REG |= Timer_1_CTRL_PWM_RUN_MODE;
  93:.\Generated_Source\PSoC4/Timer_1.c ****             Timer_1_WriteCounter(Timer_1_PWM_PR_INIT_VALUE);
  94:.\Generated_Source\PSoC4/Timer_1.c ****         #else
  95:.\Generated_Source\PSoC4/Timer_1.c ****             Timer_1_CONTROL_REG |= Timer_1_CTRL_PWM_ALIGN | Timer_1_CTRL_PWM_KILL_EVENT;
  96:.\Generated_Source\PSoC4/Timer_1.c ****             
  97:.\Generated_Source\PSoC4/Timer_1.c ****             /* Initialize counter value */
  98:.\Generated_Source\PSoC4/Timer_1.c ****             #if (Timer_1_CY_TCPWM_V2 && Timer_1_PWM_UPDOWN_CNT_USED && !Timer_1_CY_TCPWM_4000)
  99:.\Generated_Source\PSoC4/Timer_1.c ****                 Timer_1_WriteCounter(1u);
 100:.\Generated_Source\PSoC4/Timer_1.c ****             #elif (Timer_1__RIGHT == Timer_1_PWM_ALIGN)
 101:.\Generated_Source\PSoC4/Timer_1.c ****                 Timer_1_WriteCounter(Timer_1_PWM_PERIOD_VALUE);
 102:.\Generated_Source\PSoC4/Timer_1.c ****             #else 
 103:.\Generated_Source\PSoC4/Timer_1.c ****                 Timer_1_WriteCounter(0u);
 104:.\Generated_Source\PSoC4/Timer_1.c ****             #endif  /* (Timer_1_CY_TCPWM_V2 && Timer_1_PWM_UPDOWN_CNT_USED && !Timer_1_CY_TCPWM_400
 105:.\Generated_Source\PSoC4/Timer_1.c ****         #endif  /* (Timer_1__PWM_PR == Timer_1_PWM_MODE) */
 106:.\Generated_Source\PSoC4/Timer_1.c **** 
 107:.\Generated_Source\PSoC4/Timer_1.c ****         #if (Timer_1__PWM_DT == Timer_1_PWM_MODE)
 108:.\Generated_Source\PSoC4/Timer_1.c ****             Timer_1_CONTROL_REG |= Timer_1_CTRL_PWM_DEAD_TIME_CYCLE;
 109:.\Generated_Source\PSoC4/Timer_1.c ****         #endif  /* (Timer_1__PWM_DT == Timer_1_PWM_MODE) */
 110:.\Generated_Source\PSoC4/Timer_1.c **** 
 111:.\Generated_Source\PSoC4/Timer_1.c ****         #if (Timer_1__PWM == Timer_1_PWM_MODE)
 112:.\Generated_Source\PSoC4/Timer_1.c ****             Timer_1_CONTROL_REG |= Timer_1_CTRL_PWM_PRESCALER;
 113:.\Generated_Source\PSoC4/Timer_1.c ****         #endif  /* (Timer_1__PWM == Timer_1_PWM_MODE) */
 114:.\Generated_Source\PSoC4/Timer_1.c **** 
 115:.\Generated_Source\PSoC4/Timer_1.c ****         /* Set values from customizer to CTRL1 */
 116:.\Generated_Source\PSoC4/Timer_1.c ****         Timer_1_TRIG_CONTROL1_REG  = Timer_1_PWM_SIGNALS_MODES;
 117:.\Generated_Source\PSoC4/Timer_1.c ****     
 118:.\Generated_Source\PSoC4/Timer_1.c ****         /* Set values from customizer to INTR */
 119:.\Generated_Source\PSoC4/Timer_1.c ****         Timer_1_SetInterruptMode(Timer_1_PWM_INTERRUPT_MASK);
 120:.\Generated_Source\PSoC4/Timer_1.c **** 
 121:.\Generated_Source\PSoC4/Timer_1.c ****         /* Set values from customizer to CTRL2 */
 122:.\Generated_Source\PSoC4/Timer_1.c ****         #if (Timer_1__PWM_PR == Timer_1_PWM_MODE)
 123:.\Generated_Source\PSoC4/Timer_1.c ****             Timer_1_TRIG_CONTROL2_REG =
 124:.\Generated_Source\PSoC4/Timer_1.c ****                     (Timer_1_CC_MATCH_NO_CHANGE    |
 125:.\Generated_Source\PSoC4/Timer_1.c ****                     Timer_1_OVERLOW_NO_CHANGE      |
 126:.\Generated_Source\PSoC4/Timer_1.c ****                     Timer_1_UNDERFLOW_NO_CHANGE);
 127:.\Generated_Source\PSoC4/Timer_1.c ****         #else
 128:.\Generated_Source\PSoC4/Timer_1.c ****             #if (Timer_1__LEFT == Timer_1_PWM_ALIGN)
 129:.\Generated_Source\PSoC4/Timer_1.c ****                 Timer_1_TRIG_CONTROL2_REG = Timer_1_PWM_MODE_LEFT;
 130:.\Generated_Source\PSoC4/Timer_1.c ****             #endif  /* ( Timer_1_PWM_LEFT == Timer_1_PWM_ALIGN) */
 131:.\Generated_Source\PSoC4/Timer_1.c **** 
 132:.\Generated_Source\PSoC4/Timer_1.c ****             #if (Timer_1__RIGHT == Timer_1_PWM_ALIGN)
 133:.\Generated_Source\PSoC4/Timer_1.c ****                 Timer_1_TRIG_CONTROL2_REG = Timer_1_PWM_MODE_RIGHT;
 134:.\Generated_Source\PSoC4/Timer_1.c ****             #endif  /* ( Timer_1_PWM_RIGHT == Timer_1_PWM_ALIGN) */
 135:.\Generated_Source\PSoC4/Timer_1.c **** 
 136:.\Generated_Source\PSoC4/Timer_1.c ****             #if (Timer_1__CENTER == Timer_1_PWM_ALIGN)
ARM GAS  C:\Users\gizmo\AppData\Local\Temp\cc1VMdzg.s 			page 4


 137:.\Generated_Source\PSoC4/Timer_1.c ****                 Timer_1_TRIG_CONTROL2_REG = Timer_1_PWM_MODE_CENTER;
 138:.\Generated_Source\PSoC4/Timer_1.c ****             #endif  /* ( Timer_1_PWM_CENTER == Timer_1_PWM_ALIGN) */
 139:.\Generated_Source\PSoC4/Timer_1.c **** 
 140:.\Generated_Source\PSoC4/Timer_1.c ****             #if (Timer_1__ASYMMETRIC == Timer_1_PWM_ALIGN)
 141:.\Generated_Source\PSoC4/Timer_1.c ****                 Timer_1_TRIG_CONTROL2_REG = Timer_1_PWM_MODE_ASYM;
 142:.\Generated_Source\PSoC4/Timer_1.c ****             #endif  /* (Timer_1__ASYMMETRIC == Timer_1_PWM_ALIGN) */
 143:.\Generated_Source\PSoC4/Timer_1.c ****         #endif  /* (Timer_1__PWM_PR == Timer_1_PWM_MODE) */
 144:.\Generated_Source\PSoC4/Timer_1.c **** 
 145:.\Generated_Source\PSoC4/Timer_1.c ****         /* Set other values from customizer */
 146:.\Generated_Source\PSoC4/Timer_1.c ****         Timer_1_WritePeriod(Timer_1_PWM_PERIOD_VALUE );
 147:.\Generated_Source\PSoC4/Timer_1.c ****         Timer_1_WriteCompare(Timer_1_PWM_COMPARE_VALUE);
 148:.\Generated_Source\PSoC4/Timer_1.c **** 
 149:.\Generated_Source\PSoC4/Timer_1.c ****         #if (1u == Timer_1_PWM_COMPARE_SWAP)
 150:.\Generated_Source\PSoC4/Timer_1.c ****             Timer_1_SetCompareSwap(1u);
 151:.\Generated_Source\PSoC4/Timer_1.c ****             Timer_1_WriteCompareBuf(Timer_1_PWM_COMPARE_BUF_VALUE);
 152:.\Generated_Source\PSoC4/Timer_1.c ****         #endif  /* (1u == Timer_1_PWM_COMPARE_SWAP) */
 153:.\Generated_Source\PSoC4/Timer_1.c **** 
 154:.\Generated_Source\PSoC4/Timer_1.c ****         #if (1u == Timer_1_PWM_PERIOD_SWAP)
 155:.\Generated_Source\PSoC4/Timer_1.c ****             Timer_1_SetPeriodSwap(1u);
 156:.\Generated_Source\PSoC4/Timer_1.c ****             Timer_1_WritePeriodBuf(Timer_1_PWM_PERIOD_BUF_VALUE);
 157:.\Generated_Source\PSoC4/Timer_1.c ****         #endif  /* (1u == Timer_1_PWM_PERIOD_SWAP) */
 158:.\Generated_Source\PSoC4/Timer_1.c ****     #endif  /* (Timer_1__PWM_SEL == Timer_1_CONFIG) */
 159:.\Generated_Source\PSoC4/Timer_1.c ****     
 160:.\Generated_Source\PSoC4/Timer_1.c **** }
  36              		.loc 1 160 0
  37              		@ sp needed
  61:.\Generated_Source\PSoC4/Timer_1.c ****     
  38              		.loc 1 61 0
  39 000c 1A60     		str	r2, [r3]
  40              	.LVL0:
  41              	.LBB8:
  42              	.LBB9:
 161:.\Generated_Source\PSoC4/Timer_1.c **** 
 162:.\Generated_Source\PSoC4/Timer_1.c **** 
 163:.\Generated_Source\PSoC4/Timer_1.c **** /*******************************************************************************
 164:.\Generated_Source\PSoC4/Timer_1.c **** * Function Name: Timer_1_Enable
 165:.\Generated_Source\PSoC4/Timer_1.c **** ********************************************************************************
 166:.\Generated_Source\PSoC4/Timer_1.c **** *
 167:.\Generated_Source\PSoC4/Timer_1.c **** * Summary:
 168:.\Generated_Source\PSoC4/Timer_1.c **** *  Enables the Timer_1.
 169:.\Generated_Source\PSoC4/Timer_1.c **** *
 170:.\Generated_Source\PSoC4/Timer_1.c **** * Parameters:
 171:.\Generated_Source\PSoC4/Timer_1.c **** *  None
 172:.\Generated_Source\PSoC4/Timer_1.c **** *
 173:.\Generated_Source\PSoC4/Timer_1.c **** * Return:
 174:.\Generated_Source\PSoC4/Timer_1.c **** *  None
 175:.\Generated_Source\PSoC4/Timer_1.c **** *
 176:.\Generated_Source\PSoC4/Timer_1.c **** *******************************************************************************/
 177:.\Generated_Source\PSoC4/Timer_1.c **** void Timer_1_Enable(void)
 178:.\Generated_Source\PSoC4/Timer_1.c **** {
 179:.\Generated_Source\PSoC4/Timer_1.c ****     uint8 enableInterrupts;
 180:.\Generated_Source\PSoC4/Timer_1.c **** 
 181:.\Generated_Source\PSoC4/Timer_1.c ****     enableInterrupts = CyEnterCriticalSection();
 182:.\Generated_Source\PSoC4/Timer_1.c ****     Timer_1_BLOCK_CONTROL_REG |= Timer_1_MASK;
 183:.\Generated_Source\PSoC4/Timer_1.c ****     CyExitCriticalSection(enableInterrupts);
 184:.\Generated_Source\PSoC4/Timer_1.c **** 
 185:.\Generated_Source\PSoC4/Timer_1.c ****     /* Start Timer or PWM if start input is absent */
ARM GAS  C:\Users\gizmo\AppData\Local\Temp\cc1VMdzg.s 			page 5


 186:.\Generated_Source\PSoC4/Timer_1.c ****     #if (Timer_1__PWM_SEL == Timer_1_CONFIG)
 187:.\Generated_Source\PSoC4/Timer_1.c ****         #if (0u == Timer_1_PWM_START_SIGNAL_PRESENT)
 188:.\Generated_Source\PSoC4/Timer_1.c ****             Timer_1_TriggerCommand(Timer_1_MASK, Timer_1_CMD_START);
 189:.\Generated_Source\PSoC4/Timer_1.c ****         #endif /* (0u == Timer_1_PWM_START_SIGNAL_PRESENT) */
 190:.\Generated_Source\PSoC4/Timer_1.c ****     #endif /* (Timer_1__PWM_SEL == Timer_1_CONFIG) */
 191:.\Generated_Source\PSoC4/Timer_1.c **** 
 192:.\Generated_Source\PSoC4/Timer_1.c ****     #if (Timer_1__TIMER == Timer_1_CONFIG)
 193:.\Generated_Source\PSoC4/Timer_1.c ****         #if (0u == Timer_1_TC_START_SIGNAL_PRESENT)
 194:.\Generated_Source\PSoC4/Timer_1.c ****             Timer_1_TriggerCommand(Timer_1_MASK, Timer_1_CMD_START);
 195:.\Generated_Source\PSoC4/Timer_1.c ****         #endif /* (0u == Timer_1_TC_START_SIGNAL_PRESENT) */
 196:.\Generated_Source\PSoC4/Timer_1.c ****     #endif /* (Timer_1__TIMER == Timer_1_CONFIG) */
 197:.\Generated_Source\PSoC4/Timer_1.c **** }
 198:.\Generated_Source\PSoC4/Timer_1.c **** 
 199:.\Generated_Source\PSoC4/Timer_1.c **** 
 200:.\Generated_Source\PSoC4/Timer_1.c **** /*******************************************************************************
 201:.\Generated_Source\PSoC4/Timer_1.c **** * Function Name: Timer_1_Start
 202:.\Generated_Source\PSoC4/Timer_1.c **** ********************************************************************************
 203:.\Generated_Source\PSoC4/Timer_1.c **** *
 204:.\Generated_Source\PSoC4/Timer_1.c **** * Summary:
 205:.\Generated_Source\PSoC4/Timer_1.c **** *  Initializes the Timer_1 with default customizer
 206:.\Generated_Source\PSoC4/Timer_1.c **** *  values when called the first time and enables the Timer_1.
 207:.\Generated_Source\PSoC4/Timer_1.c **** *  For subsequent calls the configuration is left unchanged and the component is
 208:.\Generated_Source\PSoC4/Timer_1.c **** *  just enabled.
 209:.\Generated_Source\PSoC4/Timer_1.c **** *
 210:.\Generated_Source\PSoC4/Timer_1.c **** * Parameters:
 211:.\Generated_Source\PSoC4/Timer_1.c **** *  None
 212:.\Generated_Source\PSoC4/Timer_1.c **** *
 213:.\Generated_Source\PSoC4/Timer_1.c **** * Return:
 214:.\Generated_Source\PSoC4/Timer_1.c **** *  None
 215:.\Generated_Source\PSoC4/Timer_1.c **** *
 216:.\Generated_Source\PSoC4/Timer_1.c **** * Global variables:
 217:.\Generated_Source\PSoC4/Timer_1.c **** *  Timer_1_initVar: global variable is used to indicate initial
 218:.\Generated_Source\PSoC4/Timer_1.c **** *  configuration of this component.  The variable is initialized to zero and set
 219:.\Generated_Source\PSoC4/Timer_1.c **** *  to 1 the first time Timer_1_Start() is called. This allows
 220:.\Generated_Source\PSoC4/Timer_1.c **** *  enabling/disabling a component without re-initialization in all subsequent
 221:.\Generated_Source\PSoC4/Timer_1.c **** *  calls to the Timer_1_Start() routine.
 222:.\Generated_Source\PSoC4/Timer_1.c **** *
 223:.\Generated_Source\PSoC4/Timer_1.c **** *******************************************************************************/
 224:.\Generated_Source\PSoC4/Timer_1.c **** void Timer_1_Start(void)
 225:.\Generated_Source\PSoC4/Timer_1.c **** {
 226:.\Generated_Source\PSoC4/Timer_1.c ****     if (0u == Timer_1_initVar)
 227:.\Generated_Source\PSoC4/Timer_1.c ****     {
 228:.\Generated_Source\PSoC4/Timer_1.c ****         Timer_1_Init();
 229:.\Generated_Source\PSoC4/Timer_1.c ****         Timer_1_initVar = 1u;
 230:.\Generated_Source\PSoC4/Timer_1.c ****     }
 231:.\Generated_Source\PSoC4/Timer_1.c **** 
 232:.\Generated_Source\PSoC4/Timer_1.c ****     Timer_1_Enable();
 233:.\Generated_Source\PSoC4/Timer_1.c **** }
 234:.\Generated_Source\PSoC4/Timer_1.c **** 
 235:.\Generated_Source\PSoC4/Timer_1.c **** 
 236:.\Generated_Source\PSoC4/Timer_1.c **** /*******************************************************************************
 237:.\Generated_Source\PSoC4/Timer_1.c **** * Function Name: Timer_1_Stop
 238:.\Generated_Source\PSoC4/Timer_1.c **** ********************************************************************************
 239:.\Generated_Source\PSoC4/Timer_1.c **** *
 240:.\Generated_Source\PSoC4/Timer_1.c **** * Summary:
 241:.\Generated_Source\PSoC4/Timer_1.c **** *  Disables the Timer_1.
 242:.\Generated_Source\PSoC4/Timer_1.c **** *
ARM GAS  C:\Users\gizmo\AppData\Local\Temp\cc1VMdzg.s 			page 6


 243:.\Generated_Source\PSoC4/Timer_1.c **** * Parameters:
 244:.\Generated_Source\PSoC4/Timer_1.c **** *  None
 245:.\Generated_Source\PSoC4/Timer_1.c **** *
 246:.\Generated_Source\PSoC4/Timer_1.c **** * Return:
 247:.\Generated_Source\PSoC4/Timer_1.c **** *  None
 248:.\Generated_Source\PSoC4/Timer_1.c **** *
 249:.\Generated_Source\PSoC4/Timer_1.c **** *******************************************************************************/
 250:.\Generated_Source\PSoC4/Timer_1.c **** void Timer_1_Stop(void)
 251:.\Generated_Source\PSoC4/Timer_1.c **** {
 252:.\Generated_Source\PSoC4/Timer_1.c ****     uint8 enableInterrupts;
 253:.\Generated_Source\PSoC4/Timer_1.c **** 
 254:.\Generated_Source\PSoC4/Timer_1.c ****     enableInterrupts = CyEnterCriticalSection();
 255:.\Generated_Source\PSoC4/Timer_1.c **** 
 256:.\Generated_Source\PSoC4/Timer_1.c ****     Timer_1_BLOCK_CONTROL_REG &= (uint32)~Timer_1_MASK;
 257:.\Generated_Source\PSoC4/Timer_1.c **** 
 258:.\Generated_Source\PSoC4/Timer_1.c ****     CyExitCriticalSection(enableInterrupts);
 259:.\Generated_Source\PSoC4/Timer_1.c **** }
 260:.\Generated_Source\PSoC4/Timer_1.c **** 
 261:.\Generated_Source\PSoC4/Timer_1.c **** 
 262:.\Generated_Source\PSoC4/Timer_1.c **** /*******************************************************************************
 263:.\Generated_Source\PSoC4/Timer_1.c **** * Function Name: Timer_1_SetMode
 264:.\Generated_Source\PSoC4/Timer_1.c **** ********************************************************************************
 265:.\Generated_Source\PSoC4/Timer_1.c **** *
 266:.\Generated_Source\PSoC4/Timer_1.c **** * Summary:
 267:.\Generated_Source\PSoC4/Timer_1.c **** *  Sets the operation mode of the Timer_1. This function is used when
 268:.\Generated_Source\PSoC4/Timer_1.c **** *  configured as a generic Timer_1 and the actual mode of operation is
 269:.\Generated_Source\PSoC4/Timer_1.c **** *  set at runtime. The mode must be set while the component is disabled.
 270:.\Generated_Source\PSoC4/Timer_1.c **** *
 271:.\Generated_Source\PSoC4/Timer_1.c **** * Parameters:
 272:.\Generated_Source\PSoC4/Timer_1.c **** *  mode: Mode for the Timer_1 to operate in
 273:.\Generated_Source\PSoC4/Timer_1.c **** *   Values:
 274:.\Generated_Source\PSoC4/Timer_1.c **** *   - Timer_1_MODE_TIMER_COMPARE - Timer / Counter with
 275:.\Generated_Source\PSoC4/Timer_1.c **** *                                                 compare capability
 276:.\Generated_Source\PSoC4/Timer_1.c **** *         - Timer_1_MODE_TIMER_CAPTURE - Timer / Counter with
 277:.\Generated_Source\PSoC4/Timer_1.c **** *                                                 capture capability
 278:.\Generated_Source\PSoC4/Timer_1.c **** *         - Timer_1_MODE_QUAD - Quadrature decoder
 279:.\Generated_Source\PSoC4/Timer_1.c **** *         - Timer_1_MODE_PWM - PWM
 280:.\Generated_Source\PSoC4/Timer_1.c **** *         - Timer_1_MODE_PWM_DT - PWM with dead time
 281:.\Generated_Source\PSoC4/Timer_1.c **** *         - Timer_1_MODE_PWM_PR - PWM with pseudo random capability
 282:.\Generated_Source\PSoC4/Timer_1.c **** *
 283:.\Generated_Source\PSoC4/Timer_1.c **** * Return:
 284:.\Generated_Source\PSoC4/Timer_1.c **** *  None
 285:.\Generated_Source\PSoC4/Timer_1.c **** *
 286:.\Generated_Source\PSoC4/Timer_1.c **** *******************************************************************************/
 287:.\Generated_Source\PSoC4/Timer_1.c **** void Timer_1_SetMode(uint32 mode)
 288:.\Generated_Source\PSoC4/Timer_1.c **** {
 289:.\Generated_Source\PSoC4/Timer_1.c ****     uint8 enableInterrupts;
 290:.\Generated_Source\PSoC4/Timer_1.c **** 
 291:.\Generated_Source\PSoC4/Timer_1.c ****     enableInterrupts = CyEnterCriticalSection();
 292:.\Generated_Source\PSoC4/Timer_1.c **** 
 293:.\Generated_Source\PSoC4/Timer_1.c ****     Timer_1_CONTROL_REG &= (uint32)~Timer_1_MODE_MASK;
 294:.\Generated_Source\PSoC4/Timer_1.c ****     Timer_1_CONTROL_REG |= mode;
 295:.\Generated_Source\PSoC4/Timer_1.c **** 
 296:.\Generated_Source\PSoC4/Timer_1.c ****     CyExitCriticalSection(enableInterrupts);
 297:.\Generated_Source\PSoC4/Timer_1.c **** }
 298:.\Generated_Source\PSoC4/Timer_1.c **** 
 299:.\Generated_Source\PSoC4/Timer_1.c **** 
ARM GAS  C:\Users\gizmo\AppData\Local\Temp\cc1VMdzg.s 			page 7


 300:.\Generated_Source\PSoC4/Timer_1.c **** /*******************************************************************************
 301:.\Generated_Source\PSoC4/Timer_1.c **** * Function Name: Timer_1_SetQDMode
 302:.\Generated_Source\PSoC4/Timer_1.c **** ********************************************************************************
 303:.\Generated_Source\PSoC4/Timer_1.c **** *
 304:.\Generated_Source\PSoC4/Timer_1.c **** * Summary:
 305:.\Generated_Source\PSoC4/Timer_1.c **** *  Sets the the Quadrature Decoder to one of the 3 supported modes.
 306:.\Generated_Source\PSoC4/Timer_1.c **** *  Its functionality is only applicable to Quadrature Decoder operation.
 307:.\Generated_Source\PSoC4/Timer_1.c **** *
 308:.\Generated_Source\PSoC4/Timer_1.c **** * Parameters:
 309:.\Generated_Source\PSoC4/Timer_1.c **** *  qdMode: Quadrature Decoder mode
 310:.\Generated_Source\PSoC4/Timer_1.c **** *   Values:
 311:.\Generated_Source\PSoC4/Timer_1.c **** *         - Timer_1_MODE_X1 - Counts on phi 1 rising
 312:.\Generated_Source\PSoC4/Timer_1.c **** *         - Timer_1_MODE_X2 - Counts on both edges of phi1 (2x faster)
 313:.\Generated_Source\PSoC4/Timer_1.c **** *         - Timer_1_MODE_X4 - Counts on both edges of phi1 and phi2
 314:.\Generated_Source\PSoC4/Timer_1.c **** *                                        (4x faster)
 315:.\Generated_Source\PSoC4/Timer_1.c **** *
 316:.\Generated_Source\PSoC4/Timer_1.c **** * Return:
 317:.\Generated_Source\PSoC4/Timer_1.c **** *  None
 318:.\Generated_Source\PSoC4/Timer_1.c **** *
 319:.\Generated_Source\PSoC4/Timer_1.c **** *******************************************************************************/
 320:.\Generated_Source\PSoC4/Timer_1.c **** void Timer_1_SetQDMode(uint32 qdMode)
 321:.\Generated_Source\PSoC4/Timer_1.c **** {
 322:.\Generated_Source\PSoC4/Timer_1.c ****     uint8 enableInterrupts;
 323:.\Generated_Source\PSoC4/Timer_1.c **** 
 324:.\Generated_Source\PSoC4/Timer_1.c ****     enableInterrupts = CyEnterCriticalSection();
 325:.\Generated_Source\PSoC4/Timer_1.c **** 
 326:.\Generated_Source\PSoC4/Timer_1.c ****     Timer_1_CONTROL_REG &= (uint32)~Timer_1_QUAD_MODE_MASK;
 327:.\Generated_Source\PSoC4/Timer_1.c ****     Timer_1_CONTROL_REG |= qdMode;
 328:.\Generated_Source\PSoC4/Timer_1.c **** 
 329:.\Generated_Source\PSoC4/Timer_1.c ****     CyExitCriticalSection(enableInterrupts);
 330:.\Generated_Source\PSoC4/Timer_1.c **** }
 331:.\Generated_Source\PSoC4/Timer_1.c **** 
 332:.\Generated_Source\PSoC4/Timer_1.c **** 
 333:.\Generated_Source\PSoC4/Timer_1.c **** /*******************************************************************************
 334:.\Generated_Source\PSoC4/Timer_1.c **** * Function Name: Timer_1_SetPrescaler
 335:.\Generated_Source\PSoC4/Timer_1.c **** ********************************************************************************
 336:.\Generated_Source\PSoC4/Timer_1.c **** *
 337:.\Generated_Source\PSoC4/Timer_1.c **** * Summary:
 338:.\Generated_Source\PSoC4/Timer_1.c **** *  Sets the prescaler value that is applied to the clock input.  Not applicable
 339:.\Generated_Source\PSoC4/Timer_1.c **** *  to a PWM with the dead time mode or Quadrature Decoder mode.
 340:.\Generated_Source\PSoC4/Timer_1.c **** *
 341:.\Generated_Source\PSoC4/Timer_1.c **** * Parameters:
 342:.\Generated_Source\PSoC4/Timer_1.c **** *  prescaler: Prescaler divider value
 343:.\Generated_Source\PSoC4/Timer_1.c **** *   Values:
 344:.\Generated_Source\PSoC4/Timer_1.c **** *         - Timer_1_PRESCALE_DIVBY1    - Divide by 1 (no prescaling)
 345:.\Generated_Source\PSoC4/Timer_1.c **** *         - Timer_1_PRESCALE_DIVBY2    - Divide by 2
 346:.\Generated_Source\PSoC4/Timer_1.c **** *         - Timer_1_PRESCALE_DIVBY4    - Divide by 4
 347:.\Generated_Source\PSoC4/Timer_1.c **** *         - Timer_1_PRESCALE_DIVBY8    - Divide by 8
 348:.\Generated_Source\PSoC4/Timer_1.c **** *         - Timer_1_PRESCALE_DIVBY16   - Divide by 16
 349:.\Generated_Source\PSoC4/Timer_1.c **** *         - Timer_1_PRESCALE_DIVBY32   - Divide by 32
 350:.\Generated_Source\PSoC4/Timer_1.c **** *         - Timer_1_PRESCALE_DIVBY64   - Divide by 64
 351:.\Generated_Source\PSoC4/Timer_1.c **** *         - Timer_1_PRESCALE_DIVBY128  - Divide by 128
 352:.\Generated_Source\PSoC4/Timer_1.c **** *
 353:.\Generated_Source\PSoC4/Timer_1.c **** * Return:
 354:.\Generated_Source\PSoC4/Timer_1.c **** *  None
 355:.\Generated_Source\PSoC4/Timer_1.c **** *
 356:.\Generated_Source\PSoC4/Timer_1.c **** *******************************************************************************/
ARM GAS  C:\Users\gizmo\AppData\Local\Temp\cc1VMdzg.s 			page 8


 357:.\Generated_Source\PSoC4/Timer_1.c **** void Timer_1_SetPrescaler(uint32 prescaler)
 358:.\Generated_Source\PSoC4/Timer_1.c **** {
 359:.\Generated_Source\PSoC4/Timer_1.c ****     uint8 enableInterrupts;
 360:.\Generated_Source\PSoC4/Timer_1.c **** 
 361:.\Generated_Source\PSoC4/Timer_1.c ****     enableInterrupts = CyEnterCriticalSection();
 362:.\Generated_Source\PSoC4/Timer_1.c **** 
 363:.\Generated_Source\PSoC4/Timer_1.c ****     Timer_1_CONTROL_REG &= (uint32)~Timer_1_PRESCALER_MASK;
 364:.\Generated_Source\PSoC4/Timer_1.c ****     Timer_1_CONTROL_REG |= prescaler;
 365:.\Generated_Source\PSoC4/Timer_1.c **** 
 366:.\Generated_Source\PSoC4/Timer_1.c ****     CyExitCriticalSection(enableInterrupts);
 367:.\Generated_Source\PSoC4/Timer_1.c **** }
 368:.\Generated_Source\PSoC4/Timer_1.c **** 
 369:.\Generated_Source\PSoC4/Timer_1.c **** 
 370:.\Generated_Source\PSoC4/Timer_1.c **** /*******************************************************************************
 371:.\Generated_Source\PSoC4/Timer_1.c **** * Function Name: Timer_1_SetOneShot
 372:.\Generated_Source\PSoC4/Timer_1.c **** ********************************************************************************
 373:.\Generated_Source\PSoC4/Timer_1.c **** *
 374:.\Generated_Source\PSoC4/Timer_1.c **** * Summary:
 375:.\Generated_Source\PSoC4/Timer_1.c **** *  Writes the register that controls whether the Timer_1 runs
 376:.\Generated_Source\PSoC4/Timer_1.c **** *  continuously or stops when terminal count is reached.  By default the
 377:.\Generated_Source\PSoC4/Timer_1.c **** *  Timer_1 operates in the continuous mode.
 378:.\Generated_Source\PSoC4/Timer_1.c **** *
 379:.\Generated_Source\PSoC4/Timer_1.c **** * Parameters:
 380:.\Generated_Source\PSoC4/Timer_1.c **** *  oneShotEnable
 381:.\Generated_Source\PSoC4/Timer_1.c **** *   Values:
 382:.\Generated_Source\PSoC4/Timer_1.c **** *     - 0 - Continuous
 383:.\Generated_Source\PSoC4/Timer_1.c **** *     - 1 - Enable One Shot
 384:.\Generated_Source\PSoC4/Timer_1.c **** *
 385:.\Generated_Source\PSoC4/Timer_1.c **** * Return:
 386:.\Generated_Source\PSoC4/Timer_1.c **** *  None
 387:.\Generated_Source\PSoC4/Timer_1.c **** *
 388:.\Generated_Source\PSoC4/Timer_1.c **** *******************************************************************************/
 389:.\Generated_Source\PSoC4/Timer_1.c **** void Timer_1_SetOneShot(uint32 oneShotEnable)
 390:.\Generated_Source\PSoC4/Timer_1.c **** {
 391:.\Generated_Source\PSoC4/Timer_1.c ****     uint8 enableInterrupts;
 392:.\Generated_Source\PSoC4/Timer_1.c **** 
 393:.\Generated_Source\PSoC4/Timer_1.c ****     enableInterrupts = CyEnterCriticalSection();
 394:.\Generated_Source\PSoC4/Timer_1.c **** 
 395:.\Generated_Source\PSoC4/Timer_1.c ****     Timer_1_CONTROL_REG &= (uint32)~Timer_1_ONESHOT_MASK;
 396:.\Generated_Source\PSoC4/Timer_1.c ****     Timer_1_CONTROL_REG |= ((uint32)((oneShotEnable & Timer_1_1BIT_MASK) <<
 397:.\Generated_Source\PSoC4/Timer_1.c ****                                                                Timer_1_ONESHOT_SHIFT));
 398:.\Generated_Source\PSoC4/Timer_1.c **** 
 399:.\Generated_Source\PSoC4/Timer_1.c ****     CyExitCriticalSection(enableInterrupts);
 400:.\Generated_Source\PSoC4/Timer_1.c **** }
 401:.\Generated_Source\PSoC4/Timer_1.c **** 
 402:.\Generated_Source\PSoC4/Timer_1.c **** 
 403:.\Generated_Source\PSoC4/Timer_1.c **** /*******************************************************************************
 404:.\Generated_Source\PSoC4/Timer_1.c **** * Function Name: Timer_1_SetPWMMode
 405:.\Generated_Source\PSoC4/Timer_1.c **** ********************************************************************************
 406:.\Generated_Source\PSoC4/Timer_1.c **** *
 407:.\Generated_Source\PSoC4/Timer_1.c **** * Summary:
 408:.\Generated_Source\PSoC4/Timer_1.c **** *  Writes the control register that determines what mode of operation the PWM
 409:.\Generated_Source\PSoC4/Timer_1.c **** *  output lines are driven in.  There is a setting for what to do on a
 410:.\Generated_Source\PSoC4/Timer_1.c **** *  comparison match (CC_MATCH), on an overflow (OVERFLOW) and on an underflow
 411:.\Generated_Source\PSoC4/Timer_1.c **** *  (UNDERFLOW).  The value for each of the three must be ORed together to form
 412:.\Generated_Source\PSoC4/Timer_1.c **** *  the mode.
 413:.\Generated_Source\PSoC4/Timer_1.c **** *
ARM GAS  C:\Users\gizmo\AppData\Local\Temp\cc1VMdzg.s 			page 9


 414:.\Generated_Source\PSoC4/Timer_1.c **** * Parameters:
 415:.\Generated_Source\PSoC4/Timer_1.c **** *  modeMask: A combination of three mode settings.  Mask must include a value
 416:.\Generated_Source\PSoC4/Timer_1.c **** *  for each of the three or use one of the preconfigured PWM settings.
 417:.\Generated_Source\PSoC4/Timer_1.c **** *   Values:
 418:.\Generated_Source\PSoC4/Timer_1.c **** *     - CC_MATCH_SET        - Set on comparison match
 419:.\Generated_Source\PSoC4/Timer_1.c **** *     - CC_MATCH_CLEAR      - Clear on comparison match
 420:.\Generated_Source\PSoC4/Timer_1.c **** *     - CC_MATCH_INVERT     - Invert on comparison match
 421:.\Generated_Source\PSoC4/Timer_1.c **** *     - CC_MATCH_NO_CHANGE  - No change on comparison match
 422:.\Generated_Source\PSoC4/Timer_1.c **** *     - OVERLOW_SET         - Set on overflow
 423:.\Generated_Source\PSoC4/Timer_1.c **** *     - OVERLOW_CLEAR       - Clear on  overflow
 424:.\Generated_Source\PSoC4/Timer_1.c **** *     - OVERLOW_INVERT      - Invert on overflow
 425:.\Generated_Source\PSoC4/Timer_1.c **** *     - OVERLOW_NO_CHANGE   - No change on overflow
 426:.\Generated_Source\PSoC4/Timer_1.c **** *     - UNDERFLOW_SET       - Set on underflow
 427:.\Generated_Source\PSoC4/Timer_1.c **** *     - UNDERFLOW_CLEAR     - Clear on underflow
 428:.\Generated_Source\PSoC4/Timer_1.c **** *     - UNDERFLOW_INVERT    - Invert on underflow
 429:.\Generated_Source\PSoC4/Timer_1.c **** *     - UNDERFLOW_NO_CHANGE - No change on underflow
 430:.\Generated_Source\PSoC4/Timer_1.c **** *     - PWM_MODE_LEFT       - Setting for left aligned PWM.  Should be combined
 431:.\Generated_Source\PSoC4/Timer_1.c **** *                             with up counting mode
 432:.\Generated_Source\PSoC4/Timer_1.c **** *     - PWM_MODE_RIGHT      - Setting for right aligned PWM.  Should be combined
 433:.\Generated_Source\PSoC4/Timer_1.c **** *                             with down counting mode
 434:.\Generated_Source\PSoC4/Timer_1.c **** *     - PWM_MODE_CENTER     - Setting for center aligned PWM.  Should be
 435:.\Generated_Source\PSoC4/Timer_1.c **** *                             combined with up/down 0 mode
 436:.\Generated_Source\PSoC4/Timer_1.c **** *     - PWM_MODE_ASYM       - Setting for asymmetric PWM.  Should be combined
 437:.\Generated_Source\PSoC4/Timer_1.c **** *                             with up/down 1 mode
 438:.\Generated_Source\PSoC4/Timer_1.c **** *
 439:.\Generated_Source\PSoC4/Timer_1.c **** * Return:
 440:.\Generated_Source\PSoC4/Timer_1.c **** *  None
 441:.\Generated_Source\PSoC4/Timer_1.c **** *
 442:.\Generated_Source\PSoC4/Timer_1.c **** *******************************************************************************/
 443:.\Generated_Source\PSoC4/Timer_1.c **** void Timer_1_SetPWMMode(uint32 modeMask)
 444:.\Generated_Source\PSoC4/Timer_1.c **** {
 445:.\Generated_Source\PSoC4/Timer_1.c ****     Timer_1_TRIG_CONTROL2_REG = (modeMask & Timer_1_6BIT_MASK);
 446:.\Generated_Source\PSoC4/Timer_1.c **** }
 447:.\Generated_Source\PSoC4/Timer_1.c **** 
 448:.\Generated_Source\PSoC4/Timer_1.c **** 
 449:.\Generated_Source\PSoC4/Timer_1.c **** 
 450:.\Generated_Source\PSoC4/Timer_1.c **** /*******************************************************************************
 451:.\Generated_Source\PSoC4/Timer_1.c **** * Function Name: Timer_1_SetPWMSyncKill
 452:.\Generated_Source\PSoC4/Timer_1.c **** ********************************************************************************
 453:.\Generated_Source\PSoC4/Timer_1.c **** *
 454:.\Generated_Source\PSoC4/Timer_1.c **** * Summary:
 455:.\Generated_Source\PSoC4/Timer_1.c **** *  Writes the register that controls whether the PWM kill signal (stop input)
 456:.\Generated_Source\PSoC4/Timer_1.c **** *  causes asynchronous or synchronous kill operation.  By default the kill
 457:.\Generated_Source\PSoC4/Timer_1.c **** *  operation is asynchronous.  This functionality is only applicable to the PWM
 458:.\Generated_Source\PSoC4/Timer_1.c **** *  and PWM with dead time modes.
 459:.\Generated_Source\PSoC4/Timer_1.c **** *
 460:.\Generated_Source\PSoC4/Timer_1.c **** *  For Synchronous mode the kill signal disables both the line and line_n
 461:.\Generated_Source\PSoC4/Timer_1.c **** *  signals until the next terminal count.
 462:.\Generated_Source\PSoC4/Timer_1.c **** *
 463:.\Generated_Source\PSoC4/Timer_1.c **** *  For Asynchronous mode the kill signal disables both the line and line_n
 464:.\Generated_Source\PSoC4/Timer_1.c **** *  signals when the kill signal is present.  This mode should only be used
 465:.\Generated_Source\PSoC4/Timer_1.c **** *  when the kill signal (stop input) is configured in the pass through mode
 466:.\Generated_Source\PSoC4/Timer_1.c **** *  (Level sensitive signal).
 467:.\Generated_Source\PSoC4/Timer_1.c **** 
 468:.\Generated_Source\PSoC4/Timer_1.c **** *
 469:.\Generated_Source\PSoC4/Timer_1.c **** * Parameters:
 470:.\Generated_Source\PSoC4/Timer_1.c **** *  syncKillEnable
ARM GAS  C:\Users\gizmo\AppData\Local\Temp\cc1VMdzg.s 			page 10


 471:.\Generated_Source\PSoC4/Timer_1.c **** *   Values:
 472:.\Generated_Source\PSoC4/Timer_1.c **** *     - 0 - Asynchronous
 473:.\Generated_Source\PSoC4/Timer_1.c **** *     - 1 - Synchronous
 474:.\Generated_Source\PSoC4/Timer_1.c **** *
 475:.\Generated_Source\PSoC4/Timer_1.c **** * Return:
 476:.\Generated_Source\PSoC4/Timer_1.c **** *  None
 477:.\Generated_Source\PSoC4/Timer_1.c **** *
 478:.\Generated_Source\PSoC4/Timer_1.c **** *******************************************************************************/
 479:.\Generated_Source\PSoC4/Timer_1.c **** void Timer_1_SetPWMSyncKill(uint32 syncKillEnable)
 480:.\Generated_Source\PSoC4/Timer_1.c **** {
 481:.\Generated_Source\PSoC4/Timer_1.c ****     uint8 enableInterrupts;
 482:.\Generated_Source\PSoC4/Timer_1.c **** 
 483:.\Generated_Source\PSoC4/Timer_1.c ****     enableInterrupts = CyEnterCriticalSection();
 484:.\Generated_Source\PSoC4/Timer_1.c **** 
 485:.\Generated_Source\PSoC4/Timer_1.c ****     Timer_1_CONTROL_REG &= (uint32)~Timer_1_PWM_SYNC_KILL_MASK;
 486:.\Generated_Source\PSoC4/Timer_1.c ****     Timer_1_CONTROL_REG |= ((uint32)((syncKillEnable & Timer_1_1BIT_MASK)  <<
 487:.\Generated_Source\PSoC4/Timer_1.c ****                                                Timer_1_PWM_SYNC_KILL_SHIFT));
 488:.\Generated_Source\PSoC4/Timer_1.c **** 
 489:.\Generated_Source\PSoC4/Timer_1.c ****     CyExitCriticalSection(enableInterrupts);
 490:.\Generated_Source\PSoC4/Timer_1.c **** }
 491:.\Generated_Source\PSoC4/Timer_1.c **** 
 492:.\Generated_Source\PSoC4/Timer_1.c **** 
 493:.\Generated_Source\PSoC4/Timer_1.c **** /*******************************************************************************
 494:.\Generated_Source\PSoC4/Timer_1.c **** * Function Name: Timer_1_SetPWMStopOnKill
 495:.\Generated_Source\PSoC4/Timer_1.c **** ********************************************************************************
 496:.\Generated_Source\PSoC4/Timer_1.c **** *
 497:.\Generated_Source\PSoC4/Timer_1.c **** * Summary:
 498:.\Generated_Source\PSoC4/Timer_1.c **** *  Writes the register that controls whether the PWM kill signal (stop input)
 499:.\Generated_Source\PSoC4/Timer_1.c **** *  causes the PWM counter to stop.  By default the kill operation does not stop
 500:.\Generated_Source\PSoC4/Timer_1.c **** *  the counter.  This functionality is only applicable to the three PWM modes.
 501:.\Generated_Source\PSoC4/Timer_1.c **** *
 502:.\Generated_Source\PSoC4/Timer_1.c **** *
 503:.\Generated_Source\PSoC4/Timer_1.c **** * Parameters:
 504:.\Generated_Source\PSoC4/Timer_1.c **** *  stopOnKillEnable
 505:.\Generated_Source\PSoC4/Timer_1.c **** *   Values:
 506:.\Generated_Source\PSoC4/Timer_1.c **** *     - 0 - Don't stop
 507:.\Generated_Source\PSoC4/Timer_1.c **** *     - 1 - Stop
 508:.\Generated_Source\PSoC4/Timer_1.c **** *
 509:.\Generated_Source\PSoC4/Timer_1.c **** * Return:
 510:.\Generated_Source\PSoC4/Timer_1.c **** *  None
 511:.\Generated_Source\PSoC4/Timer_1.c **** *
 512:.\Generated_Source\PSoC4/Timer_1.c **** *******************************************************************************/
 513:.\Generated_Source\PSoC4/Timer_1.c **** void Timer_1_SetPWMStopOnKill(uint32 stopOnKillEnable)
 514:.\Generated_Source\PSoC4/Timer_1.c **** {
 515:.\Generated_Source\PSoC4/Timer_1.c ****     uint8 enableInterrupts;
 516:.\Generated_Source\PSoC4/Timer_1.c **** 
 517:.\Generated_Source\PSoC4/Timer_1.c ****     enableInterrupts = CyEnterCriticalSection();
 518:.\Generated_Source\PSoC4/Timer_1.c **** 
 519:.\Generated_Source\PSoC4/Timer_1.c ****     Timer_1_CONTROL_REG &= (uint32)~Timer_1_PWM_STOP_KILL_MASK;
 520:.\Generated_Source\PSoC4/Timer_1.c ****     Timer_1_CONTROL_REG |= ((uint32)((stopOnKillEnable & Timer_1_1BIT_MASK)  <<
 521:.\Generated_Source\PSoC4/Timer_1.c ****                                                          Timer_1_PWM_STOP_KILL_SHIFT));
 522:.\Generated_Source\PSoC4/Timer_1.c **** 
 523:.\Generated_Source\PSoC4/Timer_1.c ****     CyExitCriticalSection(enableInterrupts);
 524:.\Generated_Source\PSoC4/Timer_1.c **** }
 525:.\Generated_Source\PSoC4/Timer_1.c **** 
 526:.\Generated_Source\PSoC4/Timer_1.c **** 
 527:.\Generated_Source\PSoC4/Timer_1.c **** /*******************************************************************************
ARM GAS  C:\Users\gizmo\AppData\Local\Temp\cc1VMdzg.s 			page 11


 528:.\Generated_Source\PSoC4/Timer_1.c **** * Function Name: Timer_1_SetPWMDeadTime
 529:.\Generated_Source\PSoC4/Timer_1.c **** ********************************************************************************
 530:.\Generated_Source\PSoC4/Timer_1.c **** *
 531:.\Generated_Source\PSoC4/Timer_1.c **** * Summary:
 532:.\Generated_Source\PSoC4/Timer_1.c **** *  Writes the dead time control value.  This value delays the rising edge of
 533:.\Generated_Source\PSoC4/Timer_1.c **** *  both the line and line_n signals the designated number of cycles resulting
 534:.\Generated_Source\PSoC4/Timer_1.c **** *  in both signals being inactive for that many cycles.  This functionality is
 535:.\Generated_Source\PSoC4/Timer_1.c **** *  only applicable to the PWM in the dead time mode.
 536:.\Generated_Source\PSoC4/Timer_1.c **** 
 537:.\Generated_Source\PSoC4/Timer_1.c **** *
 538:.\Generated_Source\PSoC4/Timer_1.c **** * Parameters:
 539:.\Generated_Source\PSoC4/Timer_1.c **** *  Dead time to insert
 540:.\Generated_Source\PSoC4/Timer_1.c **** *   Values: 0 to 255
 541:.\Generated_Source\PSoC4/Timer_1.c **** *
 542:.\Generated_Source\PSoC4/Timer_1.c **** * Return:
 543:.\Generated_Source\PSoC4/Timer_1.c **** *  None
 544:.\Generated_Source\PSoC4/Timer_1.c **** *
 545:.\Generated_Source\PSoC4/Timer_1.c **** *******************************************************************************/
 546:.\Generated_Source\PSoC4/Timer_1.c **** void Timer_1_SetPWMDeadTime(uint32 deadTime)
 547:.\Generated_Source\PSoC4/Timer_1.c **** {
 548:.\Generated_Source\PSoC4/Timer_1.c ****     uint8 enableInterrupts;
 549:.\Generated_Source\PSoC4/Timer_1.c **** 
 550:.\Generated_Source\PSoC4/Timer_1.c ****     enableInterrupts = CyEnterCriticalSection();
 551:.\Generated_Source\PSoC4/Timer_1.c **** 
 552:.\Generated_Source\PSoC4/Timer_1.c ****     Timer_1_CONTROL_REG &= (uint32)~Timer_1_PRESCALER_MASK;
 553:.\Generated_Source\PSoC4/Timer_1.c ****     Timer_1_CONTROL_REG |= ((uint32)((deadTime & Timer_1_8BIT_MASK) <<
 554:.\Generated_Source\PSoC4/Timer_1.c ****                                                           Timer_1_PRESCALER_SHIFT));
 555:.\Generated_Source\PSoC4/Timer_1.c **** 
 556:.\Generated_Source\PSoC4/Timer_1.c ****     CyExitCriticalSection(enableInterrupts);
 557:.\Generated_Source\PSoC4/Timer_1.c **** }
 558:.\Generated_Source\PSoC4/Timer_1.c **** 
 559:.\Generated_Source\PSoC4/Timer_1.c **** 
 560:.\Generated_Source\PSoC4/Timer_1.c **** /*******************************************************************************
 561:.\Generated_Source\PSoC4/Timer_1.c **** * Function Name: Timer_1_SetPWMInvert
 562:.\Generated_Source\PSoC4/Timer_1.c **** ********************************************************************************
 563:.\Generated_Source\PSoC4/Timer_1.c **** *
 564:.\Generated_Source\PSoC4/Timer_1.c **** * Summary:
 565:.\Generated_Source\PSoC4/Timer_1.c **** *  Writes the bits that control whether the line and line_n outputs are
 566:.\Generated_Source\PSoC4/Timer_1.c **** *  inverted from their normal output values.  This functionality is only
 567:.\Generated_Source\PSoC4/Timer_1.c **** *  applicable to the three PWM modes.
 568:.\Generated_Source\PSoC4/Timer_1.c **** *
 569:.\Generated_Source\PSoC4/Timer_1.c **** * Parameters:
 570:.\Generated_Source\PSoC4/Timer_1.c **** *  mask: Mask of outputs to invert.
 571:.\Generated_Source\PSoC4/Timer_1.c **** *   Values:
 572:.\Generated_Source\PSoC4/Timer_1.c **** *         - Timer_1_INVERT_LINE   - Inverts the line output
 573:.\Generated_Source\PSoC4/Timer_1.c **** *         - Timer_1_INVERT_LINE_N - Inverts the line_n output
 574:.\Generated_Source\PSoC4/Timer_1.c **** *
 575:.\Generated_Source\PSoC4/Timer_1.c **** * Return:
 576:.\Generated_Source\PSoC4/Timer_1.c **** *  None
 577:.\Generated_Source\PSoC4/Timer_1.c **** *
 578:.\Generated_Source\PSoC4/Timer_1.c **** *******************************************************************************/
 579:.\Generated_Source\PSoC4/Timer_1.c **** void Timer_1_SetPWMInvert(uint32 mask)
 580:.\Generated_Source\PSoC4/Timer_1.c **** {
 581:.\Generated_Source\PSoC4/Timer_1.c ****     uint8 enableInterrupts;
 582:.\Generated_Source\PSoC4/Timer_1.c **** 
 583:.\Generated_Source\PSoC4/Timer_1.c ****     enableInterrupts = CyEnterCriticalSection();
 584:.\Generated_Source\PSoC4/Timer_1.c **** 
ARM GAS  C:\Users\gizmo\AppData\Local\Temp\cc1VMdzg.s 			page 12


 585:.\Generated_Source\PSoC4/Timer_1.c ****     Timer_1_CONTROL_REG &= (uint32)~Timer_1_INV_OUT_MASK;
 586:.\Generated_Source\PSoC4/Timer_1.c ****     Timer_1_CONTROL_REG |= mask;
 587:.\Generated_Source\PSoC4/Timer_1.c **** 
 588:.\Generated_Source\PSoC4/Timer_1.c ****     CyExitCriticalSection(enableInterrupts);
 589:.\Generated_Source\PSoC4/Timer_1.c **** }
 590:.\Generated_Source\PSoC4/Timer_1.c **** 
 591:.\Generated_Source\PSoC4/Timer_1.c **** 
 592:.\Generated_Source\PSoC4/Timer_1.c **** 
 593:.\Generated_Source\PSoC4/Timer_1.c **** /*******************************************************************************
 594:.\Generated_Source\PSoC4/Timer_1.c **** * Function Name: Timer_1_WriteCounter
 595:.\Generated_Source\PSoC4/Timer_1.c **** ********************************************************************************
 596:.\Generated_Source\PSoC4/Timer_1.c **** *
 597:.\Generated_Source\PSoC4/Timer_1.c **** * Summary:
 598:.\Generated_Source\PSoC4/Timer_1.c **** *  Writes a new 16bit counter value directly into the counter register, thus
 599:.\Generated_Source\PSoC4/Timer_1.c **** *  setting the counter (not the period) to the value written. It is not
 600:.\Generated_Source\PSoC4/Timer_1.c **** *  advised to write to this field when the counter is running.
 601:.\Generated_Source\PSoC4/Timer_1.c **** *
 602:.\Generated_Source\PSoC4/Timer_1.c **** * Parameters:
 603:.\Generated_Source\PSoC4/Timer_1.c **** *  count: value to write
 604:.\Generated_Source\PSoC4/Timer_1.c **** *
 605:.\Generated_Source\PSoC4/Timer_1.c **** * Return:
 606:.\Generated_Source\PSoC4/Timer_1.c **** *  None
 607:.\Generated_Source\PSoC4/Timer_1.c **** *
 608:.\Generated_Source\PSoC4/Timer_1.c **** *******************************************************************************/
 609:.\Generated_Source\PSoC4/Timer_1.c **** void Timer_1_WriteCounter(uint32 count)
 610:.\Generated_Source\PSoC4/Timer_1.c **** {
 611:.\Generated_Source\PSoC4/Timer_1.c ****     Timer_1_COUNTER_REG = (count & Timer_1_16BIT_MASK);
 612:.\Generated_Source\PSoC4/Timer_1.c **** }
 613:.\Generated_Source\PSoC4/Timer_1.c **** 
 614:.\Generated_Source\PSoC4/Timer_1.c **** 
 615:.\Generated_Source\PSoC4/Timer_1.c **** /*******************************************************************************
 616:.\Generated_Source\PSoC4/Timer_1.c **** * Function Name: Timer_1_ReadCounter
 617:.\Generated_Source\PSoC4/Timer_1.c **** ********************************************************************************
 618:.\Generated_Source\PSoC4/Timer_1.c **** *
 619:.\Generated_Source\PSoC4/Timer_1.c **** * Summary:
 620:.\Generated_Source\PSoC4/Timer_1.c **** *  Reads the current counter value.
 621:.\Generated_Source\PSoC4/Timer_1.c **** *
 622:.\Generated_Source\PSoC4/Timer_1.c **** * Parameters:
 623:.\Generated_Source\PSoC4/Timer_1.c **** *  None
 624:.\Generated_Source\PSoC4/Timer_1.c **** *
 625:.\Generated_Source\PSoC4/Timer_1.c **** * Return:
 626:.\Generated_Source\PSoC4/Timer_1.c **** *  Current counter value
 627:.\Generated_Source\PSoC4/Timer_1.c **** *
 628:.\Generated_Source\PSoC4/Timer_1.c **** *******************************************************************************/
 629:.\Generated_Source\PSoC4/Timer_1.c **** uint32 Timer_1_ReadCounter(void)
 630:.\Generated_Source\PSoC4/Timer_1.c **** {
 631:.\Generated_Source\PSoC4/Timer_1.c ****     return (Timer_1_COUNTER_REG & Timer_1_16BIT_MASK);
 632:.\Generated_Source\PSoC4/Timer_1.c **** }
 633:.\Generated_Source\PSoC4/Timer_1.c **** 
 634:.\Generated_Source\PSoC4/Timer_1.c **** 
 635:.\Generated_Source\PSoC4/Timer_1.c **** /*******************************************************************************
 636:.\Generated_Source\PSoC4/Timer_1.c **** * Function Name: Timer_1_SetCounterMode
 637:.\Generated_Source\PSoC4/Timer_1.c **** ********************************************************************************
 638:.\Generated_Source\PSoC4/Timer_1.c **** *
 639:.\Generated_Source\PSoC4/Timer_1.c **** * Summary:
 640:.\Generated_Source\PSoC4/Timer_1.c **** *  Sets the counter mode.  Applicable to all modes except Quadrature Decoder
 641:.\Generated_Source\PSoC4/Timer_1.c **** *  and the PWM with a pseudo random output.
ARM GAS  C:\Users\gizmo\AppData\Local\Temp\cc1VMdzg.s 			page 13


 642:.\Generated_Source\PSoC4/Timer_1.c **** *
 643:.\Generated_Source\PSoC4/Timer_1.c **** * Parameters:
 644:.\Generated_Source\PSoC4/Timer_1.c **** *  counterMode: Enumerated counter type values
 645:.\Generated_Source\PSoC4/Timer_1.c **** *   Values:
 646:.\Generated_Source\PSoC4/Timer_1.c **** *     - Timer_1_COUNT_UP       - Counts up
 647:.\Generated_Source\PSoC4/Timer_1.c **** *     - Timer_1_COUNT_DOWN     - Counts down
 648:.\Generated_Source\PSoC4/Timer_1.c **** *     - Timer_1_COUNT_UPDOWN0  - Counts up and down. Terminal count
 649:.\Generated_Source\PSoC4/Timer_1.c **** *                                         generated when counter reaches 0
 650:.\Generated_Source\PSoC4/Timer_1.c **** *     - Timer_1_COUNT_UPDOWN1  - Counts up and down. Terminal count
 651:.\Generated_Source\PSoC4/Timer_1.c **** *                                         generated both when counter reaches 0
 652:.\Generated_Source\PSoC4/Timer_1.c **** *                                         and period
 653:.\Generated_Source\PSoC4/Timer_1.c **** *
 654:.\Generated_Source\PSoC4/Timer_1.c **** * Return:
 655:.\Generated_Source\PSoC4/Timer_1.c **** *  None
 656:.\Generated_Source\PSoC4/Timer_1.c **** *
 657:.\Generated_Source\PSoC4/Timer_1.c **** *******************************************************************************/
 658:.\Generated_Source\PSoC4/Timer_1.c **** void Timer_1_SetCounterMode(uint32 counterMode)
 659:.\Generated_Source\PSoC4/Timer_1.c **** {
 660:.\Generated_Source\PSoC4/Timer_1.c ****     uint8 enableInterrupts;
 661:.\Generated_Source\PSoC4/Timer_1.c **** 
 662:.\Generated_Source\PSoC4/Timer_1.c ****     enableInterrupts = CyEnterCriticalSection();
 663:.\Generated_Source\PSoC4/Timer_1.c **** 
 664:.\Generated_Source\PSoC4/Timer_1.c ****     Timer_1_CONTROL_REG &= (uint32)~Timer_1_UPDOWN_MASK;
 665:.\Generated_Source\PSoC4/Timer_1.c ****     Timer_1_CONTROL_REG |= counterMode;
 666:.\Generated_Source\PSoC4/Timer_1.c **** 
 667:.\Generated_Source\PSoC4/Timer_1.c ****     CyExitCriticalSection(enableInterrupts);
 668:.\Generated_Source\PSoC4/Timer_1.c **** }
 669:.\Generated_Source\PSoC4/Timer_1.c **** 
 670:.\Generated_Source\PSoC4/Timer_1.c **** 
 671:.\Generated_Source\PSoC4/Timer_1.c **** /*******************************************************************************
 672:.\Generated_Source\PSoC4/Timer_1.c **** * Function Name: Timer_1_WritePeriod
 673:.\Generated_Source\PSoC4/Timer_1.c **** ********************************************************************************
 674:.\Generated_Source\PSoC4/Timer_1.c **** *
 675:.\Generated_Source\PSoC4/Timer_1.c **** * Summary:
 676:.\Generated_Source\PSoC4/Timer_1.c **** *  Writes the 16 bit period register with the new period value.
 677:.\Generated_Source\PSoC4/Timer_1.c **** *  To cause the counter to count for N cycles this register should be written
 678:.\Generated_Source\PSoC4/Timer_1.c **** *  with N-1 (counts from 0 to period inclusive).
 679:.\Generated_Source\PSoC4/Timer_1.c **** *
 680:.\Generated_Source\PSoC4/Timer_1.c **** * Parameters:
 681:.\Generated_Source\PSoC4/Timer_1.c **** *  period: Period value
 682:.\Generated_Source\PSoC4/Timer_1.c **** *
 683:.\Generated_Source\PSoC4/Timer_1.c **** * Return:
 684:.\Generated_Source\PSoC4/Timer_1.c **** *  None
 685:.\Generated_Source\PSoC4/Timer_1.c **** *
 686:.\Generated_Source\PSoC4/Timer_1.c **** *******************************************************************************/
 687:.\Generated_Source\PSoC4/Timer_1.c **** void Timer_1_WritePeriod(uint32 period)
 688:.\Generated_Source\PSoC4/Timer_1.c **** {
 689:.\Generated_Source\PSoC4/Timer_1.c ****     Timer_1_PERIOD_REG = (period & Timer_1_16BIT_MASK);
 690:.\Generated_Source\PSoC4/Timer_1.c **** }
 691:.\Generated_Source\PSoC4/Timer_1.c **** 
 692:.\Generated_Source\PSoC4/Timer_1.c **** 
 693:.\Generated_Source\PSoC4/Timer_1.c **** /*******************************************************************************
 694:.\Generated_Source\PSoC4/Timer_1.c **** * Function Name: Timer_1_ReadPeriod
 695:.\Generated_Source\PSoC4/Timer_1.c **** ********************************************************************************
 696:.\Generated_Source\PSoC4/Timer_1.c **** *
 697:.\Generated_Source\PSoC4/Timer_1.c **** * Summary:
 698:.\Generated_Source\PSoC4/Timer_1.c **** *  Reads the 16 bit period register.
ARM GAS  C:\Users\gizmo\AppData\Local\Temp\cc1VMdzg.s 			page 14


 699:.\Generated_Source\PSoC4/Timer_1.c **** *
 700:.\Generated_Source\PSoC4/Timer_1.c **** * Parameters:
 701:.\Generated_Source\PSoC4/Timer_1.c **** *  None
 702:.\Generated_Source\PSoC4/Timer_1.c **** *
 703:.\Generated_Source\PSoC4/Timer_1.c **** * Return:
 704:.\Generated_Source\PSoC4/Timer_1.c **** *  Period value
 705:.\Generated_Source\PSoC4/Timer_1.c **** *
 706:.\Generated_Source\PSoC4/Timer_1.c **** *******************************************************************************/
 707:.\Generated_Source\PSoC4/Timer_1.c **** uint32 Timer_1_ReadPeriod(void)
 708:.\Generated_Source\PSoC4/Timer_1.c **** {
 709:.\Generated_Source\PSoC4/Timer_1.c ****     return (Timer_1_PERIOD_REG & Timer_1_16BIT_MASK);
 710:.\Generated_Source\PSoC4/Timer_1.c **** }
 711:.\Generated_Source\PSoC4/Timer_1.c **** 
 712:.\Generated_Source\PSoC4/Timer_1.c **** 
 713:.\Generated_Source\PSoC4/Timer_1.c **** /*******************************************************************************
 714:.\Generated_Source\PSoC4/Timer_1.c **** * Function Name: Timer_1_SetCompareSwap
 715:.\Generated_Source\PSoC4/Timer_1.c **** ********************************************************************************
 716:.\Generated_Source\PSoC4/Timer_1.c **** *
 717:.\Generated_Source\PSoC4/Timer_1.c **** * Summary:
 718:.\Generated_Source\PSoC4/Timer_1.c **** *  Writes the register that controls whether the compare registers are
 719:.\Generated_Source\PSoC4/Timer_1.c **** *  swapped. When enabled in the Timer/Counter mode(without capture) the swap
 720:.\Generated_Source\PSoC4/Timer_1.c **** *  occurs at a TC event. In the PWM mode the swap occurs at the next TC event
 721:.\Generated_Source\PSoC4/Timer_1.c **** *  following a hardware switch event.
 722:.\Generated_Source\PSoC4/Timer_1.c **** *
 723:.\Generated_Source\PSoC4/Timer_1.c **** * Parameters:
 724:.\Generated_Source\PSoC4/Timer_1.c **** *  swapEnable
 725:.\Generated_Source\PSoC4/Timer_1.c **** *   Values:
 726:.\Generated_Source\PSoC4/Timer_1.c **** *     - 0 - Disable swap
 727:.\Generated_Source\PSoC4/Timer_1.c **** *     - 1 - Enable swap
 728:.\Generated_Source\PSoC4/Timer_1.c **** *
 729:.\Generated_Source\PSoC4/Timer_1.c **** * Return:
 730:.\Generated_Source\PSoC4/Timer_1.c **** *  None
 731:.\Generated_Source\PSoC4/Timer_1.c **** *
 732:.\Generated_Source\PSoC4/Timer_1.c **** *******************************************************************************/
 733:.\Generated_Source\PSoC4/Timer_1.c **** void Timer_1_SetCompareSwap(uint32 swapEnable)
 734:.\Generated_Source\PSoC4/Timer_1.c **** {
 735:.\Generated_Source\PSoC4/Timer_1.c ****     uint8 enableInterrupts;
 736:.\Generated_Source\PSoC4/Timer_1.c **** 
 737:.\Generated_Source\PSoC4/Timer_1.c ****     enableInterrupts = CyEnterCriticalSection();
 738:.\Generated_Source\PSoC4/Timer_1.c **** 
 739:.\Generated_Source\PSoC4/Timer_1.c ****     Timer_1_CONTROL_REG &= (uint32)~Timer_1_RELOAD_CC_MASK;
 740:.\Generated_Source\PSoC4/Timer_1.c ****     Timer_1_CONTROL_REG |= (swapEnable & Timer_1_1BIT_MASK);
 741:.\Generated_Source\PSoC4/Timer_1.c **** 
 742:.\Generated_Source\PSoC4/Timer_1.c ****     CyExitCriticalSection(enableInterrupts);
 743:.\Generated_Source\PSoC4/Timer_1.c **** }
 744:.\Generated_Source\PSoC4/Timer_1.c **** 
 745:.\Generated_Source\PSoC4/Timer_1.c **** 
 746:.\Generated_Source\PSoC4/Timer_1.c **** /*******************************************************************************
 747:.\Generated_Source\PSoC4/Timer_1.c **** * Function Name: Timer_1_WritePeriodBuf
 748:.\Generated_Source\PSoC4/Timer_1.c **** ********************************************************************************
 749:.\Generated_Source\PSoC4/Timer_1.c **** *
 750:.\Generated_Source\PSoC4/Timer_1.c **** * Summary:
 751:.\Generated_Source\PSoC4/Timer_1.c **** *  Writes the 16 bit period buf register with the new period value.
 752:.\Generated_Source\PSoC4/Timer_1.c **** *
 753:.\Generated_Source\PSoC4/Timer_1.c **** * Parameters:
 754:.\Generated_Source\PSoC4/Timer_1.c **** *  periodBuf: Period value
 755:.\Generated_Source\PSoC4/Timer_1.c **** *
ARM GAS  C:\Users\gizmo\AppData\Local\Temp\cc1VMdzg.s 			page 15


 756:.\Generated_Source\PSoC4/Timer_1.c **** * Return:
 757:.\Generated_Source\PSoC4/Timer_1.c **** *  None
 758:.\Generated_Source\PSoC4/Timer_1.c **** *
 759:.\Generated_Source\PSoC4/Timer_1.c **** *******************************************************************************/
 760:.\Generated_Source\PSoC4/Timer_1.c **** void Timer_1_WritePeriodBuf(uint32 periodBuf)
 761:.\Generated_Source\PSoC4/Timer_1.c **** {
 762:.\Generated_Source\PSoC4/Timer_1.c ****     Timer_1_PERIOD_BUF_REG = (periodBuf & Timer_1_16BIT_MASK);
 763:.\Generated_Source\PSoC4/Timer_1.c **** }
 764:.\Generated_Source\PSoC4/Timer_1.c **** 
 765:.\Generated_Source\PSoC4/Timer_1.c **** 
 766:.\Generated_Source\PSoC4/Timer_1.c **** /*******************************************************************************
 767:.\Generated_Source\PSoC4/Timer_1.c **** * Function Name: Timer_1_ReadPeriodBuf
 768:.\Generated_Source\PSoC4/Timer_1.c **** ********************************************************************************
 769:.\Generated_Source\PSoC4/Timer_1.c **** *
 770:.\Generated_Source\PSoC4/Timer_1.c **** * Summary:
 771:.\Generated_Source\PSoC4/Timer_1.c **** *  Reads the 16 bit period buf register.
 772:.\Generated_Source\PSoC4/Timer_1.c **** *
 773:.\Generated_Source\PSoC4/Timer_1.c **** * Parameters:
 774:.\Generated_Source\PSoC4/Timer_1.c **** *  None
 775:.\Generated_Source\PSoC4/Timer_1.c **** *
 776:.\Generated_Source\PSoC4/Timer_1.c **** * Return:
 777:.\Generated_Source\PSoC4/Timer_1.c **** *  Period value
 778:.\Generated_Source\PSoC4/Timer_1.c **** *
 779:.\Generated_Source\PSoC4/Timer_1.c **** *******************************************************************************/
 780:.\Generated_Source\PSoC4/Timer_1.c **** uint32 Timer_1_ReadPeriodBuf(void)
 781:.\Generated_Source\PSoC4/Timer_1.c **** {
 782:.\Generated_Source\PSoC4/Timer_1.c ****     return (Timer_1_PERIOD_BUF_REG & Timer_1_16BIT_MASK);
 783:.\Generated_Source\PSoC4/Timer_1.c **** }
 784:.\Generated_Source\PSoC4/Timer_1.c **** 
 785:.\Generated_Source\PSoC4/Timer_1.c **** 
 786:.\Generated_Source\PSoC4/Timer_1.c **** /*******************************************************************************
 787:.\Generated_Source\PSoC4/Timer_1.c **** * Function Name: Timer_1_SetPeriodSwap
 788:.\Generated_Source\PSoC4/Timer_1.c **** ********************************************************************************
 789:.\Generated_Source\PSoC4/Timer_1.c **** *
 790:.\Generated_Source\PSoC4/Timer_1.c **** * Summary:
 791:.\Generated_Source\PSoC4/Timer_1.c **** *  Writes the register that controls whether the period registers are
 792:.\Generated_Source\PSoC4/Timer_1.c **** *  swapped. When enabled in Timer/Counter mode the swap occurs at a TC event.
 793:.\Generated_Source\PSoC4/Timer_1.c **** *  In the PWM mode the swap occurs at the next TC event following a hardware
 794:.\Generated_Source\PSoC4/Timer_1.c **** *  switch event.
 795:.\Generated_Source\PSoC4/Timer_1.c **** *
 796:.\Generated_Source\PSoC4/Timer_1.c **** * Parameters:
 797:.\Generated_Source\PSoC4/Timer_1.c **** *  swapEnable
 798:.\Generated_Source\PSoC4/Timer_1.c **** *   Values:
 799:.\Generated_Source\PSoC4/Timer_1.c **** *     - 0 - Disable swap
 800:.\Generated_Source\PSoC4/Timer_1.c **** *     - 1 - Enable swap
 801:.\Generated_Source\PSoC4/Timer_1.c **** *
 802:.\Generated_Source\PSoC4/Timer_1.c **** * Return:
 803:.\Generated_Source\PSoC4/Timer_1.c **** *  None
 804:.\Generated_Source\PSoC4/Timer_1.c **** *
 805:.\Generated_Source\PSoC4/Timer_1.c **** *******************************************************************************/
 806:.\Generated_Source\PSoC4/Timer_1.c **** void Timer_1_SetPeriodSwap(uint32 swapEnable)
 807:.\Generated_Source\PSoC4/Timer_1.c **** {
 808:.\Generated_Source\PSoC4/Timer_1.c ****     uint8 enableInterrupts;
 809:.\Generated_Source\PSoC4/Timer_1.c **** 
 810:.\Generated_Source\PSoC4/Timer_1.c ****     enableInterrupts = CyEnterCriticalSection();
 811:.\Generated_Source\PSoC4/Timer_1.c **** 
 812:.\Generated_Source\PSoC4/Timer_1.c ****     Timer_1_CONTROL_REG &= (uint32)~Timer_1_RELOAD_PERIOD_MASK;
ARM GAS  C:\Users\gizmo\AppData\Local\Temp\cc1VMdzg.s 			page 16


 813:.\Generated_Source\PSoC4/Timer_1.c ****     Timer_1_CONTROL_REG |= ((uint32)((swapEnable & Timer_1_1BIT_MASK) <<
 814:.\Generated_Source\PSoC4/Timer_1.c ****                                                             Timer_1_RELOAD_PERIOD_SHIFT));
 815:.\Generated_Source\PSoC4/Timer_1.c **** 
 816:.\Generated_Source\PSoC4/Timer_1.c ****     CyExitCriticalSection(enableInterrupts);
 817:.\Generated_Source\PSoC4/Timer_1.c **** }
 818:.\Generated_Source\PSoC4/Timer_1.c **** 
 819:.\Generated_Source\PSoC4/Timer_1.c **** 
 820:.\Generated_Source\PSoC4/Timer_1.c **** /*******************************************************************************
 821:.\Generated_Source\PSoC4/Timer_1.c **** * Function Name: Timer_1_WriteCompare
 822:.\Generated_Source\PSoC4/Timer_1.c **** ********************************************************************************
 823:.\Generated_Source\PSoC4/Timer_1.c **** *
 824:.\Generated_Source\PSoC4/Timer_1.c **** * Summary:
 825:.\Generated_Source\PSoC4/Timer_1.c **** *  Writes the 16 bit compare register with the new compare value. Not
 826:.\Generated_Source\PSoC4/Timer_1.c **** *  applicable for Timer/Counter with Capture or in Quadrature Decoder modes.
 827:.\Generated_Source\PSoC4/Timer_1.c **** *
 828:.\Generated_Source\PSoC4/Timer_1.c **** * Parameters:
 829:.\Generated_Source\PSoC4/Timer_1.c **** *  compare: Compare value
 830:.\Generated_Source\PSoC4/Timer_1.c **** *
 831:.\Generated_Source\PSoC4/Timer_1.c **** * Return:
 832:.\Generated_Source\PSoC4/Timer_1.c **** *  None
 833:.\Generated_Source\PSoC4/Timer_1.c **** *
 834:.\Generated_Source\PSoC4/Timer_1.c **** *******************************************************************************/
 835:.\Generated_Source\PSoC4/Timer_1.c **** void Timer_1_WriteCompare(uint32 compare)
 836:.\Generated_Source\PSoC4/Timer_1.c **** {
 837:.\Generated_Source\PSoC4/Timer_1.c ****     #if (Timer_1_CY_TCPWM_4000)
 838:.\Generated_Source\PSoC4/Timer_1.c ****         uint32 currentMode;
 839:.\Generated_Source\PSoC4/Timer_1.c ****     #endif /* (Timer_1_CY_TCPWM_4000) */
 840:.\Generated_Source\PSoC4/Timer_1.c **** 
 841:.\Generated_Source\PSoC4/Timer_1.c ****     #if (Timer_1_CY_TCPWM_4000)
 842:.\Generated_Source\PSoC4/Timer_1.c ****         currentMode = ((Timer_1_CONTROL_REG & Timer_1_UPDOWN_MASK) >> Timer_1_UPDOWN_SHIFT);
 843:.\Generated_Source\PSoC4/Timer_1.c **** 
 844:.\Generated_Source\PSoC4/Timer_1.c ****         if (((uint32)Timer_1__COUNT_DOWN == currentMode) && (0xFFFFu != compare))
 845:.\Generated_Source\PSoC4/Timer_1.c ****         {
 846:.\Generated_Source\PSoC4/Timer_1.c ****             compare++;
 847:.\Generated_Source\PSoC4/Timer_1.c ****         }
 848:.\Generated_Source\PSoC4/Timer_1.c ****         else if (((uint32)Timer_1__COUNT_UP == currentMode) && (0u != compare))
 849:.\Generated_Source\PSoC4/Timer_1.c ****         {
 850:.\Generated_Source\PSoC4/Timer_1.c ****             compare--;
 851:.\Generated_Source\PSoC4/Timer_1.c ****         }
 852:.\Generated_Source\PSoC4/Timer_1.c ****         else
 853:.\Generated_Source\PSoC4/Timer_1.c ****         {
 854:.\Generated_Source\PSoC4/Timer_1.c ****         }
 855:.\Generated_Source\PSoC4/Timer_1.c ****         
 856:.\Generated_Source\PSoC4/Timer_1.c ****     
 857:.\Generated_Source\PSoC4/Timer_1.c ****     #endif /* (Timer_1_CY_TCPWM_4000) */
 858:.\Generated_Source\PSoC4/Timer_1.c ****     
 859:.\Generated_Source\PSoC4/Timer_1.c ****     Timer_1_COMP_CAP_REG = (compare & Timer_1_16BIT_MASK);
 860:.\Generated_Source\PSoC4/Timer_1.c **** }
 861:.\Generated_Source\PSoC4/Timer_1.c **** 
 862:.\Generated_Source\PSoC4/Timer_1.c **** 
 863:.\Generated_Source\PSoC4/Timer_1.c **** /*******************************************************************************
 864:.\Generated_Source\PSoC4/Timer_1.c **** * Function Name: Timer_1_ReadCompare
 865:.\Generated_Source\PSoC4/Timer_1.c **** ********************************************************************************
 866:.\Generated_Source\PSoC4/Timer_1.c **** *
 867:.\Generated_Source\PSoC4/Timer_1.c **** * Summary:
 868:.\Generated_Source\PSoC4/Timer_1.c **** *  Reads the compare register. Not applicable for Timer/Counter with Capture
 869:.\Generated_Source\PSoC4/Timer_1.c **** *  or in Quadrature Decoder modes.
ARM GAS  C:\Users\gizmo\AppData\Local\Temp\cc1VMdzg.s 			page 17


 870:.\Generated_Source\PSoC4/Timer_1.c **** *
 871:.\Generated_Source\PSoC4/Timer_1.c **** * Parameters:
 872:.\Generated_Source\PSoC4/Timer_1.c **** *  None
 873:.\Generated_Source\PSoC4/Timer_1.c **** *
 874:.\Generated_Source\PSoC4/Timer_1.c **** * Return:
 875:.\Generated_Source\PSoC4/Timer_1.c **** *  Compare value
 876:.\Generated_Source\PSoC4/Timer_1.c **** *
 877:.\Generated_Source\PSoC4/Timer_1.c **** *******************************************************************************/
 878:.\Generated_Source\PSoC4/Timer_1.c **** uint32 Timer_1_ReadCompare(void)
 879:.\Generated_Source\PSoC4/Timer_1.c **** {
 880:.\Generated_Source\PSoC4/Timer_1.c ****     #if (Timer_1_CY_TCPWM_4000)
 881:.\Generated_Source\PSoC4/Timer_1.c ****         uint32 currentMode;
 882:.\Generated_Source\PSoC4/Timer_1.c ****         uint32 regVal;
 883:.\Generated_Source\PSoC4/Timer_1.c ****     #endif /* (Timer_1_CY_TCPWM_4000) */
 884:.\Generated_Source\PSoC4/Timer_1.c **** 
 885:.\Generated_Source\PSoC4/Timer_1.c ****     #if (Timer_1_CY_TCPWM_4000)
 886:.\Generated_Source\PSoC4/Timer_1.c ****         currentMode = ((Timer_1_CONTROL_REG & Timer_1_UPDOWN_MASK) >> Timer_1_UPDOWN_SHIFT);
 887:.\Generated_Source\PSoC4/Timer_1.c ****         
 888:.\Generated_Source\PSoC4/Timer_1.c ****         regVal = Timer_1_COMP_CAP_REG;
 889:.\Generated_Source\PSoC4/Timer_1.c ****         
 890:.\Generated_Source\PSoC4/Timer_1.c ****         if (((uint32)Timer_1__COUNT_DOWN == currentMode) && (0u != regVal))
 891:.\Generated_Source\PSoC4/Timer_1.c ****         {
 892:.\Generated_Source\PSoC4/Timer_1.c ****             regVal--;
 893:.\Generated_Source\PSoC4/Timer_1.c ****         }
 894:.\Generated_Source\PSoC4/Timer_1.c ****         else if (((uint32)Timer_1__COUNT_UP == currentMode) && (0xFFFFu != regVal))
 895:.\Generated_Source\PSoC4/Timer_1.c ****         {
 896:.\Generated_Source\PSoC4/Timer_1.c ****             regVal++;
 897:.\Generated_Source\PSoC4/Timer_1.c ****         }
 898:.\Generated_Source\PSoC4/Timer_1.c ****         else
 899:.\Generated_Source\PSoC4/Timer_1.c ****         {
 900:.\Generated_Source\PSoC4/Timer_1.c ****         }
 901:.\Generated_Source\PSoC4/Timer_1.c **** 
 902:.\Generated_Source\PSoC4/Timer_1.c ****         return (regVal & Timer_1_16BIT_MASK);
 903:.\Generated_Source\PSoC4/Timer_1.c ****     #else
 904:.\Generated_Source\PSoC4/Timer_1.c ****         return (Timer_1_COMP_CAP_REG & Timer_1_16BIT_MASK);
 905:.\Generated_Source\PSoC4/Timer_1.c ****     #endif /* (Timer_1_CY_TCPWM_4000) */
 906:.\Generated_Source\PSoC4/Timer_1.c **** }
 907:.\Generated_Source\PSoC4/Timer_1.c **** 
 908:.\Generated_Source\PSoC4/Timer_1.c **** 
 909:.\Generated_Source\PSoC4/Timer_1.c **** /*******************************************************************************
 910:.\Generated_Source\PSoC4/Timer_1.c **** * Function Name: Timer_1_WriteCompareBuf
 911:.\Generated_Source\PSoC4/Timer_1.c **** ********************************************************************************
 912:.\Generated_Source\PSoC4/Timer_1.c **** *
 913:.\Generated_Source\PSoC4/Timer_1.c **** * Summary:
 914:.\Generated_Source\PSoC4/Timer_1.c **** *  Writes the 16 bit compare buffer register with the new compare value. Not
 915:.\Generated_Source\PSoC4/Timer_1.c **** *  applicable for Timer/Counter with Capture or in Quadrature Decoder modes.
 916:.\Generated_Source\PSoC4/Timer_1.c **** *
 917:.\Generated_Source\PSoC4/Timer_1.c **** * Parameters:
 918:.\Generated_Source\PSoC4/Timer_1.c **** *  compareBuf: Compare value
 919:.\Generated_Source\PSoC4/Timer_1.c **** *
 920:.\Generated_Source\PSoC4/Timer_1.c **** * Return:
 921:.\Generated_Source\PSoC4/Timer_1.c **** *  None
 922:.\Generated_Source\PSoC4/Timer_1.c **** *
 923:.\Generated_Source\PSoC4/Timer_1.c **** *******************************************************************************/
 924:.\Generated_Source\PSoC4/Timer_1.c **** void Timer_1_WriteCompareBuf(uint32 compareBuf)
 925:.\Generated_Source\PSoC4/Timer_1.c **** {
 926:.\Generated_Source\PSoC4/Timer_1.c ****     #if (Timer_1_CY_TCPWM_4000)
ARM GAS  C:\Users\gizmo\AppData\Local\Temp\cc1VMdzg.s 			page 18


 927:.\Generated_Source\PSoC4/Timer_1.c ****         uint32 currentMode;
 928:.\Generated_Source\PSoC4/Timer_1.c ****     #endif /* (Timer_1_CY_TCPWM_4000) */
 929:.\Generated_Source\PSoC4/Timer_1.c **** 
 930:.\Generated_Source\PSoC4/Timer_1.c ****     #if (Timer_1_CY_TCPWM_4000)
 931:.\Generated_Source\PSoC4/Timer_1.c ****         currentMode = ((Timer_1_CONTROL_REG & Timer_1_UPDOWN_MASK) >> Timer_1_UPDOWN_SHIFT);
 932:.\Generated_Source\PSoC4/Timer_1.c **** 
 933:.\Generated_Source\PSoC4/Timer_1.c ****         if (((uint32)Timer_1__COUNT_DOWN == currentMode) && (0xFFFFu != compareBuf))
 934:.\Generated_Source\PSoC4/Timer_1.c ****         {
 935:.\Generated_Source\PSoC4/Timer_1.c ****             compareBuf++;
 936:.\Generated_Source\PSoC4/Timer_1.c ****         }
 937:.\Generated_Source\PSoC4/Timer_1.c ****         else if (((uint32)Timer_1__COUNT_UP == currentMode) && (0u != compareBuf))
 938:.\Generated_Source\PSoC4/Timer_1.c ****         {
 939:.\Generated_Source\PSoC4/Timer_1.c ****             compareBuf --;
 940:.\Generated_Source\PSoC4/Timer_1.c ****         }
 941:.\Generated_Source\PSoC4/Timer_1.c ****         else
 942:.\Generated_Source\PSoC4/Timer_1.c ****         {
 943:.\Generated_Source\PSoC4/Timer_1.c ****         }
 944:.\Generated_Source\PSoC4/Timer_1.c ****     #endif /* (Timer_1_CY_TCPWM_4000) */
 945:.\Generated_Source\PSoC4/Timer_1.c ****     
 946:.\Generated_Source\PSoC4/Timer_1.c ****     Timer_1_COMP_CAP_BUF_REG = (compareBuf & Timer_1_16BIT_MASK);
 947:.\Generated_Source\PSoC4/Timer_1.c **** }
 948:.\Generated_Source\PSoC4/Timer_1.c **** 
 949:.\Generated_Source\PSoC4/Timer_1.c **** 
 950:.\Generated_Source\PSoC4/Timer_1.c **** /*******************************************************************************
 951:.\Generated_Source\PSoC4/Timer_1.c **** * Function Name: Timer_1_ReadCompareBuf
 952:.\Generated_Source\PSoC4/Timer_1.c **** ********************************************************************************
 953:.\Generated_Source\PSoC4/Timer_1.c **** *
 954:.\Generated_Source\PSoC4/Timer_1.c **** * Summary:
 955:.\Generated_Source\PSoC4/Timer_1.c **** *  Reads the compare buffer register. Not applicable for Timer/Counter with
 956:.\Generated_Source\PSoC4/Timer_1.c **** *  Capture or in Quadrature Decoder modes.
 957:.\Generated_Source\PSoC4/Timer_1.c **** *
 958:.\Generated_Source\PSoC4/Timer_1.c **** * Parameters:
 959:.\Generated_Source\PSoC4/Timer_1.c **** *  None
 960:.\Generated_Source\PSoC4/Timer_1.c **** *
 961:.\Generated_Source\PSoC4/Timer_1.c **** * Return:
 962:.\Generated_Source\PSoC4/Timer_1.c **** *  Compare buffer value
 963:.\Generated_Source\PSoC4/Timer_1.c **** *
 964:.\Generated_Source\PSoC4/Timer_1.c **** *******************************************************************************/
 965:.\Generated_Source\PSoC4/Timer_1.c **** uint32 Timer_1_ReadCompareBuf(void)
 966:.\Generated_Source\PSoC4/Timer_1.c **** {
 967:.\Generated_Source\PSoC4/Timer_1.c ****     #if (Timer_1_CY_TCPWM_4000)
 968:.\Generated_Source\PSoC4/Timer_1.c ****         uint32 currentMode;
 969:.\Generated_Source\PSoC4/Timer_1.c ****         uint32 regVal;
 970:.\Generated_Source\PSoC4/Timer_1.c ****     #endif /* (Timer_1_CY_TCPWM_4000) */
 971:.\Generated_Source\PSoC4/Timer_1.c **** 
 972:.\Generated_Source\PSoC4/Timer_1.c ****     #if (Timer_1_CY_TCPWM_4000)
 973:.\Generated_Source\PSoC4/Timer_1.c ****         currentMode = ((Timer_1_CONTROL_REG & Timer_1_UPDOWN_MASK) >> Timer_1_UPDOWN_SHIFT);
 974:.\Generated_Source\PSoC4/Timer_1.c **** 
 975:.\Generated_Source\PSoC4/Timer_1.c ****         regVal = Timer_1_COMP_CAP_BUF_REG;
 976:.\Generated_Source\PSoC4/Timer_1.c ****         
 977:.\Generated_Source\PSoC4/Timer_1.c ****         if (((uint32)Timer_1__COUNT_DOWN == currentMode) && (0u != regVal))
 978:.\Generated_Source\PSoC4/Timer_1.c ****         {
 979:.\Generated_Source\PSoC4/Timer_1.c ****             regVal--;
 980:.\Generated_Source\PSoC4/Timer_1.c ****         }
 981:.\Generated_Source\PSoC4/Timer_1.c ****         else if (((uint32)Timer_1__COUNT_UP == currentMode) && (0xFFFFu != regVal))
 982:.\Generated_Source\PSoC4/Timer_1.c ****         {
 983:.\Generated_Source\PSoC4/Timer_1.c ****             regVal++;
ARM GAS  C:\Users\gizmo\AppData\Local\Temp\cc1VMdzg.s 			page 19


 984:.\Generated_Source\PSoC4/Timer_1.c ****         }
 985:.\Generated_Source\PSoC4/Timer_1.c ****         else
 986:.\Generated_Source\PSoC4/Timer_1.c ****         {
 987:.\Generated_Source\PSoC4/Timer_1.c ****         }
 988:.\Generated_Source\PSoC4/Timer_1.c **** 
 989:.\Generated_Source\PSoC4/Timer_1.c ****         return (regVal & Timer_1_16BIT_MASK);
 990:.\Generated_Source\PSoC4/Timer_1.c ****     #else
 991:.\Generated_Source\PSoC4/Timer_1.c ****         return (Timer_1_COMP_CAP_BUF_REG & Timer_1_16BIT_MASK);
 992:.\Generated_Source\PSoC4/Timer_1.c ****     #endif /* (Timer_1_CY_TCPWM_4000) */
 993:.\Generated_Source\PSoC4/Timer_1.c **** }
 994:.\Generated_Source\PSoC4/Timer_1.c **** 
 995:.\Generated_Source\PSoC4/Timer_1.c **** 
 996:.\Generated_Source\PSoC4/Timer_1.c **** /*******************************************************************************
 997:.\Generated_Source\PSoC4/Timer_1.c **** * Function Name: Timer_1_ReadCapture
 998:.\Generated_Source\PSoC4/Timer_1.c **** ********************************************************************************
 999:.\Generated_Source\PSoC4/Timer_1.c **** *
1000:.\Generated_Source\PSoC4/Timer_1.c **** * Summary:
1001:.\Generated_Source\PSoC4/Timer_1.c **** *  Reads the captured counter value. This API is applicable only for
1002:.\Generated_Source\PSoC4/Timer_1.c **** *  Timer/Counter with the capture mode and Quadrature Decoder modes.
1003:.\Generated_Source\PSoC4/Timer_1.c **** *
1004:.\Generated_Source\PSoC4/Timer_1.c **** * Parameters:
1005:.\Generated_Source\PSoC4/Timer_1.c **** *  None
1006:.\Generated_Source\PSoC4/Timer_1.c **** *
1007:.\Generated_Source\PSoC4/Timer_1.c **** * Return:
1008:.\Generated_Source\PSoC4/Timer_1.c **** *  Capture value
1009:.\Generated_Source\PSoC4/Timer_1.c **** *
1010:.\Generated_Source\PSoC4/Timer_1.c **** *******************************************************************************/
1011:.\Generated_Source\PSoC4/Timer_1.c **** uint32 Timer_1_ReadCapture(void)
1012:.\Generated_Source\PSoC4/Timer_1.c **** {
1013:.\Generated_Source\PSoC4/Timer_1.c ****     return (Timer_1_COMP_CAP_REG & Timer_1_16BIT_MASK);
1014:.\Generated_Source\PSoC4/Timer_1.c **** }
1015:.\Generated_Source\PSoC4/Timer_1.c **** 
1016:.\Generated_Source\PSoC4/Timer_1.c **** 
1017:.\Generated_Source\PSoC4/Timer_1.c **** /*******************************************************************************
1018:.\Generated_Source\PSoC4/Timer_1.c **** * Function Name: Timer_1_ReadCaptureBuf
1019:.\Generated_Source\PSoC4/Timer_1.c **** ********************************************************************************
1020:.\Generated_Source\PSoC4/Timer_1.c **** *
1021:.\Generated_Source\PSoC4/Timer_1.c **** * Summary:
1022:.\Generated_Source\PSoC4/Timer_1.c **** *  Reads the capture buffer register. This API is applicable only for
1023:.\Generated_Source\PSoC4/Timer_1.c **** *  Timer/Counter with the capture mode and Quadrature Decoder modes.
1024:.\Generated_Source\PSoC4/Timer_1.c **** *
1025:.\Generated_Source\PSoC4/Timer_1.c **** * Parameters:
1026:.\Generated_Source\PSoC4/Timer_1.c **** *  None
1027:.\Generated_Source\PSoC4/Timer_1.c **** *
1028:.\Generated_Source\PSoC4/Timer_1.c **** * Return:
1029:.\Generated_Source\PSoC4/Timer_1.c **** *  Capture buffer value
1030:.\Generated_Source\PSoC4/Timer_1.c **** *
1031:.\Generated_Source\PSoC4/Timer_1.c **** *******************************************************************************/
1032:.\Generated_Source\PSoC4/Timer_1.c **** uint32 Timer_1_ReadCaptureBuf(void)
1033:.\Generated_Source\PSoC4/Timer_1.c **** {
1034:.\Generated_Source\PSoC4/Timer_1.c ****     return (Timer_1_COMP_CAP_BUF_REG & Timer_1_16BIT_MASK);
1035:.\Generated_Source\PSoC4/Timer_1.c **** }
1036:.\Generated_Source\PSoC4/Timer_1.c **** 
1037:.\Generated_Source\PSoC4/Timer_1.c **** 
1038:.\Generated_Source\PSoC4/Timer_1.c **** /*******************************************************************************
1039:.\Generated_Source\PSoC4/Timer_1.c **** * Function Name: Timer_1_SetCaptureMode
1040:.\Generated_Source\PSoC4/Timer_1.c **** ********************************************************************************
ARM GAS  C:\Users\gizmo\AppData\Local\Temp\cc1VMdzg.s 			page 20


1041:.\Generated_Source\PSoC4/Timer_1.c **** *
1042:.\Generated_Source\PSoC4/Timer_1.c **** * Summary:
1043:.\Generated_Source\PSoC4/Timer_1.c **** *  Sets the capture trigger mode. For PWM mode this is the switch input.
1044:.\Generated_Source\PSoC4/Timer_1.c **** *  This input is not applicable to the Timer/Counter without Capture and
1045:.\Generated_Source\PSoC4/Timer_1.c **** *  Quadrature Decoder modes.
1046:.\Generated_Source\PSoC4/Timer_1.c **** *
1047:.\Generated_Source\PSoC4/Timer_1.c **** * Parameters:
1048:.\Generated_Source\PSoC4/Timer_1.c **** *  triggerMode: Enumerated trigger mode value
1049:.\Generated_Source\PSoC4/Timer_1.c **** *   Values:
1050:.\Generated_Source\PSoC4/Timer_1.c **** *     - Timer_1_TRIG_LEVEL     - Level
1051:.\Generated_Source\PSoC4/Timer_1.c **** *     - Timer_1_TRIG_RISING    - Rising edge
1052:.\Generated_Source\PSoC4/Timer_1.c **** *     - Timer_1_TRIG_FALLING   - Falling edge
1053:.\Generated_Source\PSoC4/Timer_1.c **** *     - Timer_1_TRIG_BOTH      - Both rising and falling edge
1054:.\Generated_Source\PSoC4/Timer_1.c **** *
1055:.\Generated_Source\PSoC4/Timer_1.c **** * Return:
1056:.\Generated_Source\PSoC4/Timer_1.c **** *  None
1057:.\Generated_Source\PSoC4/Timer_1.c **** *
1058:.\Generated_Source\PSoC4/Timer_1.c **** *******************************************************************************/
1059:.\Generated_Source\PSoC4/Timer_1.c **** void Timer_1_SetCaptureMode(uint32 triggerMode)
1060:.\Generated_Source\PSoC4/Timer_1.c **** {
1061:.\Generated_Source\PSoC4/Timer_1.c ****     uint8 enableInterrupts;
1062:.\Generated_Source\PSoC4/Timer_1.c **** 
1063:.\Generated_Source\PSoC4/Timer_1.c ****     enableInterrupts = CyEnterCriticalSection();
1064:.\Generated_Source\PSoC4/Timer_1.c **** 
1065:.\Generated_Source\PSoC4/Timer_1.c ****     Timer_1_TRIG_CONTROL1_REG &= (uint32)~Timer_1_CAPTURE_MASK;
1066:.\Generated_Source\PSoC4/Timer_1.c ****     Timer_1_TRIG_CONTROL1_REG |= triggerMode;
1067:.\Generated_Source\PSoC4/Timer_1.c **** 
1068:.\Generated_Source\PSoC4/Timer_1.c ****     CyExitCriticalSection(enableInterrupts);
1069:.\Generated_Source\PSoC4/Timer_1.c **** }
1070:.\Generated_Source\PSoC4/Timer_1.c **** 
1071:.\Generated_Source\PSoC4/Timer_1.c **** 
1072:.\Generated_Source\PSoC4/Timer_1.c **** /*******************************************************************************
1073:.\Generated_Source\PSoC4/Timer_1.c **** * Function Name: Timer_1_SetReloadMode
1074:.\Generated_Source\PSoC4/Timer_1.c **** ********************************************************************************
1075:.\Generated_Source\PSoC4/Timer_1.c **** *
1076:.\Generated_Source\PSoC4/Timer_1.c **** * Summary:
1077:.\Generated_Source\PSoC4/Timer_1.c **** *  Sets the reload trigger mode. For Quadrature Decoder mode this is the index
1078:.\Generated_Source\PSoC4/Timer_1.c **** *  input.
1079:.\Generated_Source\PSoC4/Timer_1.c **** *
1080:.\Generated_Source\PSoC4/Timer_1.c **** * Parameters:
1081:.\Generated_Source\PSoC4/Timer_1.c **** *  triggerMode: Enumerated trigger mode value
1082:.\Generated_Source\PSoC4/Timer_1.c **** *   Values:
1083:.\Generated_Source\PSoC4/Timer_1.c **** *     - Timer_1_TRIG_LEVEL     - Level
1084:.\Generated_Source\PSoC4/Timer_1.c **** *     - Timer_1_TRIG_RISING    - Rising edge
1085:.\Generated_Source\PSoC4/Timer_1.c **** *     - Timer_1_TRIG_FALLING   - Falling edge
1086:.\Generated_Source\PSoC4/Timer_1.c **** *     - Timer_1_TRIG_BOTH      - Both rising and falling edge
1087:.\Generated_Source\PSoC4/Timer_1.c **** *
1088:.\Generated_Source\PSoC4/Timer_1.c **** * Return:
1089:.\Generated_Source\PSoC4/Timer_1.c **** *  None
1090:.\Generated_Source\PSoC4/Timer_1.c **** *
1091:.\Generated_Source\PSoC4/Timer_1.c **** *******************************************************************************/
1092:.\Generated_Source\PSoC4/Timer_1.c **** void Timer_1_SetReloadMode(uint32 triggerMode)
1093:.\Generated_Source\PSoC4/Timer_1.c **** {
1094:.\Generated_Source\PSoC4/Timer_1.c ****     uint8 enableInterrupts;
1095:.\Generated_Source\PSoC4/Timer_1.c **** 
1096:.\Generated_Source\PSoC4/Timer_1.c ****     enableInterrupts = CyEnterCriticalSection();
1097:.\Generated_Source\PSoC4/Timer_1.c **** 
ARM GAS  C:\Users\gizmo\AppData\Local\Temp\cc1VMdzg.s 			page 21


1098:.\Generated_Source\PSoC4/Timer_1.c ****     Timer_1_TRIG_CONTROL1_REG &= (uint32)~Timer_1_RELOAD_MASK;
1099:.\Generated_Source\PSoC4/Timer_1.c ****     Timer_1_TRIG_CONTROL1_REG |= ((uint32)(triggerMode << Timer_1_RELOAD_SHIFT));
1100:.\Generated_Source\PSoC4/Timer_1.c **** 
1101:.\Generated_Source\PSoC4/Timer_1.c ****     CyExitCriticalSection(enableInterrupts);
1102:.\Generated_Source\PSoC4/Timer_1.c **** }
1103:.\Generated_Source\PSoC4/Timer_1.c **** 
1104:.\Generated_Source\PSoC4/Timer_1.c **** 
1105:.\Generated_Source\PSoC4/Timer_1.c **** /*******************************************************************************
1106:.\Generated_Source\PSoC4/Timer_1.c **** * Function Name: Timer_1_SetStartMode
1107:.\Generated_Source\PSoC4/Timer_1.c **** ********************************************************************************
1108:.\Generated_Source\PSoC4/Timer_1.c **** *
1109:.\Generated_Source\PSoC4/Timer_1.c **** * Summary:
1110:.\Generated_Source\PSoC4/Timer_1.c **** *  Sets the start trigger mode. For Quadrature Decoder mode this is the
1111:.\Generated_Source\PSoC4/Timer_1.c **** *  phiB input.
1112:.\Generated_Source\PSoC4/Timer_1.c **** *
1113:.\Generated_Source\PSoC4/Timer_1.c **** * Parameters:
1114:.\Generated_Source\PSoC4/Timer_1.c **** *  triggerMode: Enumerated trigger mode value
1115:.\Generated_Source\PSoC4/Timer_1.c **** *   Values:
1116:.\Generated_Source\PSoC4/Timer_1.c **** *     - Timer_1_TRIG_LEVEL     - Level
1117:.\Generated_Source\PSoC4/Timer_1.c **** *     - Timer_1_TRIG_RISING    - Rising edge
1118:.\Generated_Source\PSoC4/Timer_1.c **** *     - Timer_1_TRIG_FALLING   - Falling edge
1119:.\Generated_Source\PSoC4/Timer_1.c **** *     - Timer_1_TRIG_BOTH      - Both rising and falling edge
1120:.\Generated_Source\PSoC4/Timer_1.c **** *
1121:.\Generated_Source\PSoC4/Timer_1.c **** * Return:
1122:.\Generated_Source\PSoC4/Timer_1.c **** *  None
1123:.\Generated_Source\PSoC4/Timer_1.c **** *
1124:.\Generated_Source\PSoC4/Timer_1.c **** *******************************************************************************/
1125:.\Generated_Source\PSoC4/Timer_1.c **** void Timer_1_SetStartMode(uint32 triggerMode)
1126:.\Generated_Source\PSoC4/Timer_1.c **** {
1127:.\Generated_Source\PSoC4/Timer_1.c ****     uint8 enableInterrupts;
1128:.\Generated_Source\PSoC4/Timer_1.c **** 
1129:.\Generated_Source\PSoC4/Timer_1.c ****     enableInterrupts = CyEnterCriticalSection();
1130:.\Generated_Source\PSoC4/Timer_1.c **** 
1131:.\Generated_Source\PSoC4/Timer_1.c ****     Timer_1_TRIG_CONTROL1_REG &= (uint32)~Timer_1_START_MASK;
1132:.\Generated_Source\PSoC4/Timer_1.c ****     Timer_1_TRIG_CONTROL1_REG |= ((uint32)(triggerMode << Timer_1_START_SHIFT));
1133:.\Generated_Source\PSoC4/Timer_1.c **** 
1134:.\Generated_Source\PSoC4/Timer_1.c ****     CyExitCriticalSection(enableInterrupts);
1135:.\Generated_Source\PSoC4/Timer_1.c **** }
1136:.\Generated_Source\PSoC4/Timer_1.c **** 
1137:.\Generated_Source\PSoC4/Timer_1.c **** 
1138:.\Generated_Source\PSoC4/Timer_1.c **** /*******************************************************************************
1139:.\Generated_Source\PSoC4/Timer_1.c **** * Function Name: Timer_1_SetStopMode
1140:.\Generated_Source\PSoC4/Timer_1.c **** ********************************************************************************
1141:.\Generated_Source\PSoC4/Timer_1.c **** *
1142:.\Generated_Source\PSoC4/Timer_1.c **** * Summary:
1143:.\Generated_Source\PSoC4/Timer_1.c **** *  Sets the stop trigger mode. For PWM mode this is the kill input.
1144:.\Generated_Source\PSoC4/Timer_1.c **** *
1145:.\Generated_Source\PSoC4/Timer_1.c **** * Parameters:
1146:.\Generated_Source\PSoC4/Timer_1.c **** *  triggerMode: Enumerated trigger mode value
1147:.\Generated_Source\PSoC4/Timer_1.c **** *   Values:
1148:.\Generated_Source\PSoC4/Timer_1.c **** *     - Timer_1_TRIG_LEVEL     - Level
1149:.\Generated_Source\PSoC4/Timer_1.c **** *     - Timer_1_TRIG_RISING    - Rising edge
1150:.\Generated_Source\PSoC4/Timer_1.c **** *     - Timer_1_TRIG_FALLING   - Falling edge
1151:.\Generated_Source\PSoC4/Timer_1.c **** *     - Timer_1_TRIG_BOTH      - Both rising and falling edge
1152:.\Generated_Source\PSoC4/Timer_1.c **** *
1153:.\Generated_Source\PSoC4/Timer_1.c **** * Return:
1154:.\Generated_Source\PSoC4/Timer_1.c **** *  None
ARM GAS  C:\Users\gizmo\AppData\Local\Temp\cc1VMdzg.s 			page 22


1155:.\Generated_Source\PSoC4/Timer_1.c **** *
1156:.\Generated_Source\PSoC4/Timer_1.c **** *******************************************************************************/
1157:.\Generated_Source\PSoC4/Timer_1.c **** void Timer_1_SetStopMode(uint32 triggerMode)
1158:.\Generated_Source\PSoC4/Timer_1.c **** {
1159:.\Generated_Source\PSoC4/Timer_1.c ****     uint8 enableInterrupts;
1160:.\Generated_Source\PSoC4/Timer_1.c **** 
1161:.\Generated_Source\PSoC4/Timer_1.c ****     enableInterrupts = CyEnterCriticalSection();
1162:.\Generated_Source\PSoC4/Timer_1.c **** 
1163:.\Generated_Source\PSoC4/Timer_1.c ****     Timer_1_TRIG_CONTROL1_REG &= (uint32)~Timer_1_STOP_MASK;
1164:.\Generated_Source\PSoC4/Timer_1.c ****     Timer_1_TRIG_CONTROL1_REG |= ((uint32)(triggerMode << Timer_1_STOP_SHIFT));
1165:.\Generated_Source\PSoC4/Timer_1.c **** 
1166:.\Generated_Source\PSoC4/Timer_1.c ****     CyExitCriticalSection(enableInterrupts);
1167:.\Generated_Source\PSoC4/Timer_1.c **** }
1168:.\Generated_Source\PSoC4/Timer_1.c **** 
1169:.\Generated_Source\PSoC4/Timer_1.c **** 
1170:.\Generated_Source\PSoC4/Timer_1.c **** /*******************************************************************************
1171:.\Generated_Source\PSoC4/Timer_1.c **** * Function Name: Timer_1_SetCountMode
1172:.\Generated_Source\PSoC4/Timer_1.c **** ********************************************************************************
1173:.\Generated_Source\PSoC4/Timer_1.c **** *
1174:.\Generated_Source\PSoC4/Timer_1.c **** * Summary:
1175:.\Generated_Source\PSoC4/Timer_1.c **** *  Sets the count trigger mode. For Quadrature Decoder mode this is the phiA
1176:.\Generated_Source\PSoC4/Timer_1.c **** *  input.
1177:.\Generated_Source\PSoC4/Timer_1.c **** *
1178:.\Generated_Source\PSoC4/Timer_1.c **** * Parameters:
1179:.\Generated_Source\PSoC4/Timer_1.c **** *  triggerMode: Enumerated trigger mode value
1180:.\Generated_Source\PSoC4/Timer_1.c **** *   Values:
1181:.\Generated_Source\PSoC4/Timer_1.c **** *     - Timer_1_TRIG_LEVEL     - Level
1182:.\Generated_Source\PSoC4/Timer_1.c **** *     - Timer_1_TRIG_RISING    - Rising edge
1183:.\Generated_Source\PSoC4/Timer_1.c **** *     - Timer_1_TRIG_FALLING   - Falling edge
1184:.\Generated_Source\PSoC4/Timer_1.c **** *     - Timer_1_TRIG_BOTH      - Both rising and falling edge
1185:.\Generated_Source\PSoC4/Timer_1.c **** *
1186:.\Generated_Source\PSoC4/Timer_1.c **** * Return:
1187:.\Generated_Source\PSoC4/Timer_1.c **** *  None
1188:.\Generated_Source\PSoC4/Timer_1.c **** *
1189:.\Generated_Source\PSoC4/Timer_1.c **** *******************************************************************************/
1190:.\Generated_Source\PSoC4/Timer_1.c **** void Timer_1_SetCountMode(uint32 triggerMode)
1191:.\Generated_Source\PSoC4/Timer_1.c **** {
1192:.\Generated_Source\PSoC4/Timer_1.c ****     uint8 enableInterrupts;
1193:.\Generated_Source\PSoC4/Timer_1.c **** 
1194:.\Generated_Source\PSoC4/Timer_1.c ****     enableInterrupts = CyEnterCriticalSection();
1195:.\Generated_Source\PSoC4/Timer_1.c **** 
1196:.\Generated_Source\PSoC4/Timer_1.c ****     Timer_1_TRIG_CONTROL1_REG &= (uint32)~Timer_1_COUNT_MASK;
1197:.\Generated_Source\PSoC4/Timer_1.c ****     Timer_1_TRIG_CONTROL1_REG |= ((uint32)(triggerMode << Timer_1_COUNT_SHIFT));
1198:.\Generated_Source\PSoC4/Timer_1.c **** 
1199:.\Generated_Source\PSoC4/Timer_1.c ****     CyExitCriticalSection(enableInterrupts);
1200:.\Generated_Source\PSoC4/Timer_1.c **** }
1201:.\Generated_Source\PSoC4/Timer_1.c **** 
1202:.\Generated_Source\PSoC4/Timer_1.c **** 
1203:.\Generated_Source\PSoC4/Timer_1.c **** /*******************************************************************************
1204:.\Generated_Source\PSoC4/Timer_1.c **** * Function Name: Timer_1_TriggerCommand
1205:.\Generated_Source\PSoC4/Timer_1.c **** ********************************************************************************
1206:.\Generated_Source\PSoC4/Timer_1.c **** *
1207:.\Generated_Source\PSoC4/Timer_1.c **** * Summary:
1208:.\Generated_Source\PSoC4/Timer_1.c **** *  Triggers the designated command to occur on the designated TCPWM instances.
1209:.\Generated_Source\PSoC4/Timer_1.c **** *  The mask can be used to apply this command simultaneously to more than one
1210:.\Generated_Source\PSoC4/Timer_1.c **** *  instance.  This allows multiple TCPWM instances to be synchronized.
1211:.\Generated_Source\PSoC4/Timer_1.c **** *
ARM GAS  C:\Users\gizmo\AppData\Local\Temp\cc1VMdzg.s 			page 23


1212:.\Generated_Source\PSoC4/Timer_1.c **** * Parameters:
1213:.\Generated_Source\PSoC4/Timer_1.c **** *  mask: A combination of mask bits for each instance of the TCPWM that the
1214:.\Generated_Source\PSoC4/Timer_1.c **** *        command should apply to.  This function from one instance can be used
1215:.\Generated_Source\PSoC4/Timer_1.c **** *        to apply the command to any of the instances in the design.
1216:.\Generated_Source\PSoC4/Timer_1.c **** *        The mask value for a specific instance is available with the MASK
1217:.\Generated_Source\PSoC4/Timer_1.c **** *        define.
1218:.\Generated_Source\PSoC4/Timer_1.c **** *  command: Enumerated command values. Capture command only applicable for
1219:.\Generated_Source\PSoC4/Timer_1.c **** *           Timer/Counter with Capture and PWM modes.
1220:.\Generated_Source\PSoC4/Timer_1.c **** *   Values:
1221:.\Generated_Source\PSoC4/Timer_1.c **** *     - Timer_1_CMD_CAPTURE    - Trigger Capture command
1222:.\Generated_Source\PSoC4/Timer_1.c **** *     - Timer_1_CMD_RELOAD     - Trigger Reload command
1223:.\Generated_Source\PSoC4/Timer_1.c **** *     - Timer_1_CMD_STOP       - Trigger Stop command
1224:.\Generated_Source\PSoC4/Timer_1.c **** *     - Timer_1_CMD_START      - Trigger Start command
1225:.\Generated_Source\PSoC4/Timer_1.c **** *
1226:.\Generated_Source\PSoC4/Timer_1.c **** * Return:
1227:.\Generated_Source\PSoC4/Timer_1.c **** *  None
1228:.\Generated_Source\PSoC4/Timer_1.c **** *
1229:.\Generated_Source\PSoC4/Timer_1.c **** *******************************************************************************/
1230:.\Generated_Source\PSoC4/Timer_1.c **** void Timer_1_TriggerCommand(uint32 mask, uint32 command)
1231:.\Generated_Source\PSoC4/Timer_1.c **** {
1232:.\Generated_Source\PSoC4/Timer_1.c ****     uint8 enableInterrupts;
1233:.\Generated_Source\PSoC4/Timer_1.c **** 
1234:.\Generated_Source\PSoC4/Timer_1.c ****     enableInterrupts = CyEnterCriticalSection();
1235:.\Generated_Source\PSoC4/Timer_1.c **** 
1236:.\Generated_Source\PSoC4/Timer_1.c ****     Timer_1_COMMAND_REG = ((uint32)(mask << command));
1237:.\Generated_Source\PSoC4/Timer_1.c **** 
1238:.\Generated_Source\PSoC4/Timer_1.c ****     CyExitCriticalSection(enableInterrupts);
1239:.\Generated_Source\PSoC4/Timer_1.c **** }
1240:.\Generated_Source\PSoC4/Timer_1.c **** 
1241:.\Generated_Source\PSoC4/Timer_1.c **** 
1242:.\Generated_Source\PSoC4/Timer_1.c **** /*******************************************************************************
1243:.\Generated_Source\PSoC4/Timer_1.c **** * Function Name: Timer_1_ReadStatus
1244:.\Generated_Source\PSoC4/Timer_1.c **** ********************************************************************************
1245:.\Generated_Source\PSoC4/Timer_1.c **** *
1246:.\Generated_Source\PSoC4/Timer_1.c **** * Summary:
1247:.\Generated_Source\PSoC4/Timer_1.c **** *  Reads the status of the Timer_1.
1248:.\Generated_Source\PSoC4/Timer_1.c **** *
1249:.\Generated_Source\PSoC4/Timer_1.c **** * Parameters:
1250:.\Generated_Source\PSoC4/Timer_1.c **** *  None
1251:.\Generated_Source\PSoC4/Timer_1.c **** *
1252:.\Generated_Source\PSoC4/Timer_1.c **** * Return:
1253:.\Generated_Source\PSoC4/Timer_1.c **** *  Status
1254:.\Generated_Source\PSoC4/Timer_1.c **** *   Values:
1255:.\Generated_Source\PSoC4/Timer_1.c **** *     - Timer_1_STATUS_DOWN    - Set if counting down
1256:.\Generated_Source\PSoC4/Timer_1.c **** *     - Timer_1_STATUS_RUNNING - Set if counter is running
1257:.\Generated_Source\PSoC4/Timer_1.c **** *
1258:.\Generated_Source\PSoC4/Timer_1.c **** *******************************************************************************/
1259:.\Generated_Source\PSoC4/Timer_1.c **** uint32 Timer_1_ReadStatus(void)
1260:.\Generated_Source\PSoC4/Timer_1.c **** {
1261:.\Generated_Source\PSoC4/Timer_1.c ****     return ((Timer_1_STATUS_REG >> Timer_1_RUNNING_STATUS_SHIFT) |
1262:.\Generated_Source\PSoC4/Timer_1.c ****             (Timer_1_STATUS_REG & Timer_1_STATUS_DOWN));
1263:.\Generated_Source\PSoC4/Timer_1.c **** }
1264:.\Generated_Source\PSoC4/Timer_1.c **** 
1265:.\Generated_Source\PSoC4/Timer_1.c **** 
1266:.\Generated_Source\PSoC4/Timer_1.c **** /*******************************************************************************
1267:.\Generated_Source\PSoC4/Timer_1.c **** * Function Name: Timer_1_SetInterruptMode
1268:.\Generated_Source\PSoC4/Timer_1.c **** ********************************************************************************
ARM GAS  C:\Users\gizmo\AppData\Local\Temp\cc1VMdzg.s 			page 24


1269:.\Generated_Source\PSoC4/Timer_1.c **** *
1270:.\Generated_Source\PSoC4/Timer_1.c **** * Summary:
1271:.\Generated_Source\PSoC4/Timer_1.c **** *  Sets the interrupt mask to control which interrupt
1272:.\Generated_Source\PSoC4/Timer_1.c **** *  requests generate the interrupt signal.
1273:.\Generated_Source\PSoC4/Timer_1.c **** *
1274:.\Generated_Source\PSoC4/Timer_1.c **** * Parameters:
1275:.\Generated_Source\PSoC4/Timer_1.c **** *   interruptMask: Mask of bits to be enabled
1276:.\Generated_Source\PSoC4/Timer_1.c **** *   Values:
1277:.\Generated_Source\PSoC4/Timer_1.c **** *     - Timer_1_INTR_MASK_TC       - Terminal count mask
1278:.\Generated_Source\PSoC4/Timer_1.c **** *     - Timer_1_INTR_MASK_CC_MATCH - Compare count / capture mask
1279:.\Generated_Source\PSoC4/Timer_1.c **** *
1280:.\Generated_Source\PSoC4/Timer_1.c **** * Return:
1281:.\Generated_Source\PSoC4/Timer_1.c **** *  None
1282:.\Generated_Source\PSoC4/Timer_1.c **** *
1283:.\Generated_Source\PSoC4/Timer_1.c **** *******************************************************************************/
1284:.\Generated_Source\PSoC4/Timer_1.c **** void Timer_1_SetInterruptMode(uint32 interruptMask)
1285:.\Generated_Source\PSoC4/Timer_1.c **** {
1286:.\Generated_Source\PSoC4/Timer_1.c ****     Timer_1_INTERRUPT_MASK_REG =  interruptMask;
  43              		.loc 1 1286 0
  44 000e 074B     		ldr	r3, .L2+8
  45 0010 0B3A     		sub	r2, r2, #11
  46 0012 1A60     		str	r2, [r3]
  47              	.LVL1:
  48              	.LBE9:
  49              	.LBE8:
  50              	.LBB10:
  51              	.LBB11:
 689:.\Generated_Source\PSoC4/Timer_1.c **** }
  52              		.loc 1 689 0
  53 0014 064A     		ldr	r2, .L2+12
  54 0016 074B     		ldr	r3, .L2+16
  55 0018 1A60     		str	r2, [r3]
  56              	.LVL2:
  57              	.LBE11:
  58              	.LBE10:
  59              	.LBB12:
  60              	.LBB13:
 611:.\Generated_Source\PSoC4/Timer_1.c **** }
  61              		.loc 1 611 0
  62 001a 0022     		mov	r2, #0
  63 001c 064B     		ldr	r3, .L2+20
  64 001e 1A60     		str	r2, [r3]
  65              	.LBE13:
  66              	.LBE12:
 160:.\Generated_Source\PSoC4/Timer_1.c **** 
  67              		.loc 1 160 0
  68 0020 7047     		bx	lr
  69              	.L3:
  70 0022 C046     		.align	2
  71              	.L2:
  72 0024 00010540 		.word	1074069760
  73 0028 24010540 		.word	1074069796
  74 002c 38010540 		.word	1074069816
  75 0030 FFFF0000 		.word	65535
  76 0034 14010540 		.word	1074069780
  77 0038 08010540 		.word	1074069768
  78              		.cfi_endproc
ARM GAS  C:\Users\gizmo\AppData\Local\Temp\cc1VMdzg.s 			page 25


  79              	.LFE0:
  80              		.size	Timer_1_Init, .-Timer_1_Init
  81              		.section	.text.Timer_1_Stop,"ax",%progbits
  82              		.align	1
  83              		.global	Timer_1_Stop
  84              		.code	16
  85              		.thumb_func
  86              		.type	Timer_1_Stop, %function
  87              	Timer_1_Stop:
  88              	.LFB3:
 251:.\Generated_Source\PSoC4/Timer_1.c ****     uint8 enableInterrupts;
  89              		.loc 1 251 0
  90              		.cfi_startproc
  91 0000 08B5     		push	{r3, lr}
  92              		.cfi_def_cfa_offset 8
  93              		.cfi_offset 3, -8
  94              		.cfi_offset 14, -4
 254:.\Generated_Source\PSoC4/Timer_1.c **** 
  95              		.loc 1 254 0
  96 0002 FFF7FEFF 		bl	CyEnterCriticalSection
  97              	.LVL3:
 256:.\Generated_Source\PSoC4/Timer_1.c **** 
  98              		.loc 1 256 0
  99 0006 0121     		mov	r1, #1
 100 0008 034A     		ldr	r2, .L5
 259:.\Generated_Source\PSoC4/Timer_1.c **** 
 101              		.loc 1 259 0
 102              		@ sp needed
 256:.\Generated_Source\PSoC4/Timer_1.c **** 
 103              		.loc 1 256 0
 104 000a 1368     		ldr	r3, [r2]
 105 000c 8B43     		bic	r3, r1
 106 000e 1360     		str	r3, [r2]
 258:.\Generated_Source\PSoC4/Timer_1.c **** }
 107              		.loc 1 258 0
 108 0010 FFF7FEFF 		bl	CyExitCriticalSection
 109              	.LVL4:
 259:.\Generated_Source\PSoC4/Timer_1.c **** 
 110              		.loc 1 259 0
 111 0014 08BD     		pop	{r3, pc}
 112              	.L6:
 113 0016 C046     		.align	2
 114              	.L5:
 115 0018 00000540 		.word	1074069504
 116              		.cfi_endproc
 117              	.LFE3:
 118              		.size	Timer_1_Stop, .-Timer_1_Stop
 119              		.section	.text.Timer_1_SetMode,"ax",%progbits
 120              		.align	1
 121              		.global	Timer_1_SetMode
 122              		.code	16
 123              		.thumb_func
 124              		.type	Timer_1_SetMode, %function
 125              	Timer_1_SetMode:
 126              	.LFB4:
 288:.\Generated_Source\PSoC4/Timer_1.c ****     uint8 enableInterrupts;
 127              		.loc 1 288 0
ARM GAS  C:\Users\gizmo\AppData\Local\Temp\cc1VMdzg.s 			page 26


 128              		.cfi_startproc
 129              	.LVL5:
 130 0000 10B5     		push	{r4, lr}
 131              		.cfi_def_cfa_offset 8
 132              		.cfi_offset 4, -8
 133              		.cfi_offset 14, -4
 288:.\Generated_Source\PSoC4/Timer_1.c ****     uint8 enableInterrupts;
 134              		.loc 1 288 0
 135 0002 041C     		mov	r4, r0
 291:.\Generated_Source\PSoC4/Timer_1.c **** 
 136              		.loc 1 291 0
 137 0004 FFF7FEFF 		bl	CyEnterCriticalSection
 138              	.LVL6:
 293:.\Generated_Source\PSoC4/Timer_1.c ****     Timer_1_CONTROL_REG |= mode;
 139              		.loc 1 293 0
 140 0008 054B     		ldr	r3, .L8
 141 000a 064A     		ldr	r2, .L8+4
 142 000c 1968     		ldr	r1, [r3]
 297:.\Generated_Source\PSoC4/Timer_1.c **** 
 143              		.loc 1 297 0
 144              		@ sp needed
 293:.\Generated_Source\PSoC4/Timer_1.c ****     Timer_1_CONTROL_REG |= mode;
 145              		.loc 1 293 0
 146 000e 0A40     		and	r2, r1
 147 0010 1A60     		str	r2, [r3]
 294:.\Generated_Source\PSoC4/Timer_1.c **** 
 148              		.loc 1 294 0
 149 0012 1A68     		ldr	r2, [r3]
 150 0014 2243     		orr	r2, r4
 151 0016 1A60     		str	r2, [r3]
 296:.\Generated_Source\PSoC4/Timer_1.c **** }
 152              		.loc 1 296 0
 153 0018 FFF7FEFF 		bl	CyExitCriticalSection
 154              	.LVL7:
 155              	.LVL8:
 297:.\Generated_Source\PSoC4/Timer_1.c **** 
 156              		.loc 1 297 0
 157 001c 10BD     		pop	{r4, pc}
 158              	.L9:
 159 001e C046     		.align	2
 160              	.L8:
 161 0020 00010540 		.word	1074069760
 162 0024 FFFFFFF8 		.word	-117440513
 163              		.cfi_endproc
 164              	.LFE4:
 165              		.size	Timer_1_SetMode, .-Timer_1_SetMode
 166              		.section	.text.Timer_1_SetQDMode,"ax",%progbits
 167              		.align	1
 168              		.global	Timer_1_SetQDMode
 169              		.code	16
 170              		.thumb_func
 171              		.type	Timer_1_SetQDMode, %function
 172              	Timer_1_SetQDMode:
 173              	.LFB5:
 321:.\Generated_Source\PSoC4/Timer_1.c ****     uint8 enableInterrupts;
 174              		.loc 1 321 0
 175              		.cfi_startproc
ARM GAS  C:\Users\gizmo\AppData\Local\Temp\cc1VMdzg.s 			page 27


 176              	.LVL9:
 177 0000 10B5     		push	{r4, lr}
 178              		.cfi_def_cfa_offset 8
 179              		.cfi_offset 4, -8
 180              		.cfi_offset 14, -4
 321:.\Generated_Source\PSoC4/Timer_1.c ****     uint8 enableInterrupts;
 181              		.loc 1 321 0
 182 0002 041C     		mov	r4, r0
 324:.\Generated_Source\PSoC4/Timer_1.c **** 
 183              		.loc 1 324 0
 184 0004 FFF7FEFF 		bl	CyEnterCriticalSection
 185              	.LVL10:
 326:.\Generated_Source\PSoC4/Timer_1.c ****     Timer_1_CONTROL_REG |= qdMode;
 186              		.loc 1 326 0
 187 0008 054B     		ldr	r3, .L11
 188 000a 064A     		ldr	r2, .L11+4
 189 000c 1968     		ldr	r1, [r3]
 330:.\Generated_Source\PSoC4/Timer_1.c **** 
 190              		.loc 1 330 0
 191              		@ sp needed
 326:.\Generated_Source\PSoC4/Timer_1.c ****     Timer_1_CONTROL_REG |= qdMode;
 192              		.loc 1 326 0
 193 000e 0A40     		and	r2, r1
 194 0010 1A60     		str	r2, [r3]
 327:.\Generated_Source\PSoC4/Timer_1.c **** 
 195              		.loc 1 327 0
 196 0012 1A68     		ldr	r2, [r3]
 197 0014 2243     		orr	r2, r4
 198 0016 1A60     		str	r2, [r3]
 329:.\Generated_Source\PSoC4/Timer_1.c **** }
 199              		.loc 1 329 0
 200 0018 FFF7FEFF 		bl	CyExitCriticalSection
 201              	.LVL11:
 202              	.LVL12:
 330:.\Generated_Source\PSoC4/Timer_1.c **** 
 203              		.loc 1 330 0
 204 001c 10BD     		pop	{r4, pc}
 205              	.L12:
 206 001e C046     		.align	2
 207              	.L11:
 208 0020 00010540 		.word	1074069760
 209 0024 FFFF8FFF 		.word	-7340033
 210              		.cfi_endproc
 211              	.LFE5:
 212              		.size	Timer_1_SetQDMode, .-Timer_1_SetQDMode
 213              		.section	.text.Timer_1_SetPrescaler,"ax",%progbits
 214              		.align	1
 215              		.global	Timer_1_SetPrescaler
 216              		.code	16
 217              		.thumb_func
 218              		.type	Timer_1_SetPrescaler, %function
 219              	Timer_1_SetPrescaler:
 220              	.LFB6:
 358:.\Generated_Source\PSoC4/Timer_1.c ****     uint8 enableInterrupts;
 221              		.loc 1 358 0
 222              		.cfi_startproc
 223              	.LVL13:
ARM GAS  C:\Users\gizmo\AppData\Local\Temp\cc1VMdzg.s 			page 28


 224 0000 10B5     		push	{r4, lr}
 225              		.cfi_def_cfa_offset 8
 226              		.cfi_offset 4, -8
 227              		.cfi_offset 14, -4
 358:.\Generated_Source\PSoC4/Timer_1.c ****     uint8 enableInterrupts;
 228              		.loc 1 358 0
 229 0002 041C     		mov	r4, r0
 361:.\Generated_Source\PSoC4/Timer_1.c **** 
 230              		.loc 1 361 0
 231 0004 FFF7FEFF 		bl	CyEnterCriticalSection
 232              	.LVL14:
 363:.\Generated_Source\PSoC4/Timer_1.c ****     Timer_1_CONTROL_REG |= prescaler;
 233              		.loc 1 363 0
 234 0008 054B     		ldr	r3, .L14
 235 000a 064A     		ldr	r2, .L14+4
 236 000c 1968     		ldr	r1, [r3]
 367:.\Generated_Source\PSoC4/Timer_1.c **** 
 237              		.loc 1 367 0
 238              		@ sp needed
 363:.\Generated_Source\PSoC4/Timer_1.c ****     Timer_1_CONTROL_REG |= prescaler;
 239              		.loc 1 363 0
 240 000e 0A40     		and	r2, r1
 241 0010 1A60     		str	r2, [r3]
 364:.\Generated_Source\PSoC4/Timer_1.c **** 
 242              		.loc 1 364 0
 243 0012 1A68     		ldr	r2, [r3]
 244 0014 2243     		orr	r2, r4
 245 0016 1A60     		str	r2, [r3]
 366:.\Generated_Source\PSoC4/Timer_1.c **** }
 246              		.loc 1 366 0
 247 0018 FFF7FEFF 		bl	CyExitCriticalSection
 248              	.LVL15:
 249              	.LVL16:
 367:.\Generated_Source\PSoC4/Timer_1.c **** 
 250              		.loc 1 367 0
 251 001c 10BD     		pop	{r4, pc}
 252              	.L15:
 253 001e C046     		.align	2
 254              	.L14:
 255 0020 00010540 		.word	1074069760
 256 0024 FF00FFFF 		.word	-65281
 257              		.cfi_endproc
 258              	.LFE6:
 259              		.size	Timer_1_SetPrescaler, .-Timer_1_SetPrescaler
 260              		.section	.text.Timer_1_SetOneShot,"ax",%progbits
 261              		.align	1
 262              		.global	Timer_1_SetOneShot
 263              		.code	16
 264              		.thumb_func
 265              		.type	Timer_1_SetOneShot, %function
 266              	Timer_1_SetOneShot:
 267              	.LFB7:
 390:.\Generated_Source\PSoC4/Timer_1.c ****     uint8 enableInterrupts;
 268              		.loc 1 390 0
 269              		.cfi_startproc
 270              	.LVL17:
 271 0000 10B5     		push	{r4, lr}
ARM GAS  C:\Users\gizmo\AppData\Local\Temp\cc1VMdzg.s 			page 29


 272              		.cfi_def_cfa_offset 8
 273              		.cfi_offset 4, -8
 274              		.cfi_offset 14, -4
 390:.\Generated_Source\PSoC4/Timer_1.c ****     uint8 enableInterrupts;
 275              		.loc 1 390 0
 276 0002 041C     		mov	r4, r0
 393:.\Generated_Source\PSoC4/Timer_1.c **** 
 277              		.loc 1 393 0
 278 0004 FFF7FEFF 		bl	CyEnterCriticalSection
 279              	.LVL18:
 395:.\Generated_Source\PSoC4/Timer_1.c ****     Timer_1_CONTROL_REG |= ((uint32)((oneShotEnable & Timer_1_1BIT_MASK) <<
 280              		.loc 1 395 0
 281 0008 064A     		ldr	r2, .L17
 282 000a 074B     		ldr	r3, .L17+4
 283 000c 1168     		ldr	r1, [r2]
 400:.\Generated_Source\PSoC4/Timer_1.c **** 
 284              		.loc 1 400 0
 285              		@ sp needed
 395:.\Generated_Source\PSoC4/Timer_1.c ****     Timer_1_CONTROL_REG |= ((uint32)((oneShotEnable & Timer_1_1BIT_MASK) <<
 286              		.loc 1 395 0
 287 000e 0B40     		and	r3, r1
 288 0010 1360     		str	r3, [r2]
 396:.\Generated_Source\PSoC4/Timer_1.c ****                                                                Timer_1_ONESHOT_SHIFT));
 289              		.loc 1 396 0
 290 0012 0123     		mov	r3, #1
 291 0014 1168     		ldr	r1, [r2]
 292 0016 2340     		and	r3, r4
 293 0018 9B04     		lsl	r3, r3, #18
 294 001a 0B43     		orr	r3, r1
 295 001c 1360     		str	r3, [r2]
 399:.\Generated_Source\PSoC4/Timer_1.c **** }
 296              		.loc 1 399 0
 297 001e FFF7FEFF 		bl	CyExitCriticalSection
 298              	.LVL19:
 299              	.LVL20:
 400:.\Generated_Source\PSoC4/Timer_1.c **** 
 300              		.loc 1 400 0
 301 0022 10BD     		pop	{r4, pc}
 302              	.L18:
 303              		.align	2
 304              	.L17:
 305 0024 00010540 		.word	1074069760
 306 0028 FFFFFBFF 		.word	-262145
 307              		.cfi_endproc
 308              	.LFE7:
 309              		.size	Timer_1_SetOneShot, .-Timer_1_SetOneShot
 310              		.section	.text.Timer_1_SetPWMMode,"ax",%progbits
 311              		.align	1
 312              		.global	Timer_1_SetPWMMode
 313              		.code	16
 314              		.thumb_func
 315              		.type	Timer_1_SetPWMMode, %function
 316              	Timer_1_SetPWMMode:
 317              	.LFB8:
 444:.\Generated_Source\PSoC4/Timer_1.c ****     Timer_1_TRIG_CONTROL2_REG = (modeMask & Timer_1_6BIT_MASK);
 318              		.loc 1 444 0
 319              		.cfi_startproc
ARM GAS  C:\Users\gizmo\AppData\Local\Temp\cc1VMdzg.s 			page 30


 320              	.LVL21:
 445:.\Generated_Source\PSoC4/Timer_1.c **** }
 321              		.loc 1 445 0
 322 0000 3F23     		mov	r3, #63
 323 0002 1840     		and	r0, r3
 324              	.LVL22:
 325 0004 014B     		ldr	r3, .L20
 446:.\Generated_Source\PSoC4/Timer_1.c **** 
 326              		.loc 1 446 0
 327              		@ sp needed
 445:.\Generated_Source\PSoC4/Timer_1.c **** }
 328              		.loc 1 445 0
 329 0006 1860     		str	r0, [r3]
 446:.\Generated_Source\PSoC4/Timer_1.c **** 
 330              		.loc 1 446 0
 331 0008 7047     		bx	lr
 332              	.L21:
 333 000a C046     		.align	2
 334              	.L20:
 335 000c 28010540 		.word	1074069800
 336              		.cfi_endproc
 337              	.LFE8:
 338              		.size	Timer_1_SetPWMMode, .-Timer_1_SetPWMMode
 339              		.section	.text.Timer_1_SetPWMSyncKill,"ax",%progbits
 340              		.align	1
 341              		.global	Timer_1_SetPWMSyncKill
 342              		.code	16
 343              		.thumb_func
 344              		.type	Timer_1_SetPWMSyncKill, %function
 345              	Timer_1_SetPWMSyncKill:
 346              	.LFB9:
 480:.\Generated_Source\PSoC4/Timer_1.c ****     uint8 enableInterrupts;
 347              		.loc 1 480 0
 348              		.cfi_startproc
 349              	.LVL23:
 350 0000 10B5     		push	{r4, lr}
 351              		.cfi_def_cfa_offset 8
 352              		.cfi_offset 4, -8
 353              		.cfi_offset 14, -4
 480:.\Generated_Source\PSoC4/Timer_1.c ****     uint8 enableInterrupts;
 354              		.loc 1 480 0
 355 0002 041C     		mov	r4, r0
 483:.\Generated_Source\PSoC4/Timer_1.c **** 
 356              		.loc 1 483 0
 357 0004 FFF7FEFF 		bl	CyEnterCriticalSection
 358              	.LVL24:
 485:.\Generated_Source\PSoC4/Timer_1.c ****     Timer_1_CONTROL_REG |= ((uint32)((syncKillEnable & Timer_1_1BIT_MASK)  <<
 359              		.loc 1 485 0
 360 0008 0421     		mov	r1, #4
 361 000a 064A     		ldr	r2, .L23
 490:.\Generated_Source\PSoC4/Timer_1.c **** 
 362              		.loc 1 490 0
 363              		@ sp needed
 485:.\Generated_Source\PSoC4/Timer_1.c ****     Timer_1_CONTROL_REG |= ((uint32)((syncKillEnable & Timer_1_1BIT_MASK)  <<
 364              		.loc 1 485 0
 365 000c 1368     		ldr	r3, [r2]
 366 000e 8B43     		bic	r3, r1
ARM GAS  C:\Users\gizmo\AppData\Local\Temp\cc1VMdzg.s 			page 31


 367 0010 1360     		str	r3, [r2]
 486:.\Generated_Source\PSoC4/Timer_1.c ****                                                Timer_1_PWM_SYNC_KILL_SHIFT));
 368              		.loc 1 486 0
 369 0012 0123     		mov	r3, #1
 370 0014 1168     		ldr	r1, [r2]
 371 0016 2340     		and	r3, r4
 372 0018 9B00     		lsl	r3, r3, #2
 373 001a 0B43     		orr	r3, r1
 374 001c 1360     		str	r3, [r2]
 489:.\Generated_Source\PSoC4/Timer_1.c **** }
 375              		.loc 1 489 0
 376 001e FFF7FEFF 		bl	CyExitCriticalSection
 377              	.LVL25:
 378              	.LVL26:
 490:.\Generated_Source\PSoC4/Timer_1.c **** 
 379              		.loc 1 490 0
 380 0022 10BD     		pop	{r4, pc}
 381              	.L24:
 382              		.align	2
 383              	.L23:
 384 0024 00010540 		.word	1074069760
 385              		.cfi_endproc
 386              	.LFE9:
 387              		.size	Timer_1_SetPWMSyncKill, .-Timer_1_SetPWMSyncKill
 388              		.section	.text.Timer_1_SetPWMStopOnKill,"ax",%progbits
 389              		.align	1
 390              		.global	Timer_1_SetPWMStopOnKill
 391              		.code	16
 392              		.thumb_func
 393              		.type	Timer_1_SetPWMStopOnKill, %function
 394              	Timer_1_SetPWMStopOnKill:
 395              	.LFB10:
 514:.\Generated_Source\PSoC4/Timer_1.c ****     uint8 enableInterrupts;
 396              		.loc 1 514 0
 397              		.cfi_startproc
 398              	.LVL27:
 399 0000 10B5     		push	{r4, lr}
 400              		.cfi_def_cfa_offset 8
 401              		.cfi_offset 4, -8
 402              		.cfi_offset 14, -4
 514:.\Generated_Source\PSoC4/Timer_1.c ****     uint8 enableInterrupts;
 403              		.loc 1 514 0
 404 0002 041C     		mov	r4, r0
 517:.\Generated_Source\PSoC4/Timer_1.c **** 
 405              		.loc 1 517 0
 406 0004 FFF7FEFF 		bl	CyEnterCriticalSection
 407              	.LVL28:
 519:.\Generated_Source\PSoC4/Timer_1.c ****     Timer_1_CONTROL_REG |= ((uint32)((stopOnKillEnable & Timer_1_1BIT_MASK)  <<
 408              		.loc 1 519 0
 409 0008 0821     		mov	r1, #8
 410 000a 064A     		ldr	r2, .L26
 524:.\Generated_Source\PSoC4/Timer_1.c **** 
 411              		.loc 1 524 0
 412              		@ sp needed
 519:.\Generated_Source\PSoC4/Timer_1.c ****     Timer_1_CONTROL_REG |= ((uint32)((stopOnKillEnable & Timer_1_1BIT_MASK)  <<
 413              		.loc 1 519 0
 414 000c 1368     		ldr	r3, [r2]
ARM GAS  C:\Users\gizmo\AppData\Local\Temp\cc1VMdzg.s 			page 32


 415 000e 8B43     		bic	r3, r1
 416 0010 1360     		str	r3, [r2]
 520:.\Generated_Source\PSoC4/Timer_1.c ****                                                          Timer_1_PWM_STOP_KILL_SHIFT));
 417              		.loc 1 520 0
 418 0012 0123     		mov	r3, #1
 419 0014 1168     		ldr	r1, [r2]
 420 0016 2340     		and	r3, r4
 421 0018 DB00     		lsl	r3, r3, #3
 422 001a 0B43     		orr	r3, r1
 423 001c 1360     		str	r3, [r2]
 523:.\Generated_Source\PSoC4/Timer_1.c **** }
 424              		.loc 1 523 0
 425 001e FFF7FEFF 		bl	CyExitCriticalSection
 426              	.LVL29:
 427              	.LVL30:
 524:.\Generated_Source\PSoC4/Timer_1.c **** 
 428              		.loc 1 524 0
 429 0022 10BD     		pop	{r4, pc}
 430              	.L27:
 431              		.align	2
 432              	.L26:
 433 0024 00010540 		.word	1074069760
 434              		.cfi_endproc
 435              	.LFE10:
 436              		.size	Timer_1_SetPWMStopOnKill, .-Timer_1_SetPWMStopOnKill
 437              		.section	.text.Timer_1_SetPWMDeadTime,"ax",%progbits
 438              		.align	1
 439              		.global	Timer_1_SetPWMDeadTime
 440              		.code	16
 441              		.thumb_func
 442              		.type	Timer_1_SetPWMDeadTime, %function
 443              	Timer_1_SetPWMDeadTime:
 444              	.LFB11:
 547:.\Generated_Source\PSoC4/Timer_1.c ****     uint8 enableInterrupts;
 445              		.loc 1 547 0
 446              		.cfi_startproc
 447              	.LVL31:
 448 0000 10B5     		push	{r4, lr}
 449              		.cfi_def_cfa_offset 8
 450              		.cfi_offset 4, -8
 451              		.cfi_offset 14, -4
 547:.\Generated_Source\PSoC4/Timer_1.c ****     uint8 enableInterrupts;
 452              		.loc 1 547 0
 453 0002 041C     		mov	r4, r0
 550:.\Generated_Source\PSoC4/Timer_1.c **** 
 454              		.loc 1 550 0
 455 0004 FFF7FEFF 		bl	CyEnterCriticalSection
 456              	.LVL32:
 552:.\Generated_Source\PSoC4/Timer_1.c ****     Timer_1_CONTROL_REG |= ((uint32)((deadTime & Timer_1_8BIT_MASK) <<
 457              		.loc 1 552 0
 458 0008 064B     		ldr	r3, .L29
 459 000a 074A     		ldr	r2, .L29+4
 460 000c 1968     		ldr	r1, [r3]
 553:.\Generated_Source\PSoC4/Timer_1.c ****                                                           Timer_1_PRESCALER_SHIFT));
 461              		.loc 1 553 0
 462 000e 2406     		lsl	r4, r4, #24
 463              	.LVL33:
ARM GAS  C:\Users\gizmo\AppData\Local\Temp\cc1VMdzg.s 			page 33


 552:.\Generated_Source\PSoC4/Timer_1.c ****     Timer_1_CONTROL_REG |= ((uint32)((deadTime & Timer_1_8BIT_MASK) <<
 464              		.loc 1 552 0
 465 0010 0A40     		and	r2, r1
 466 0012 1A60     		str	r2, [r3]
 553:.\Generated_Source\PSoC4/Timer_1.c ****                                                           Timer_1_PRESCALER_SHIFT));
 467              		.loc 1 553 0
 468 0014 1A68     		ldr	r2, [r3]
 469 0016 240C     		lsr	r4, r4, #16
 470 0018 1443     		orr	r4, r2
 471 001a 1C60     		str	r4, [r3]
 556:.\Generated_Source\PSoC4/Timer_1.c **** }
 472              		.loc 1 556 0
 473 001c FFF7FEFF 		bl	CyExitCriticalSection
 474              	.LVL34:
 557:.\Generated_Source\PSoC4/Timer_1.c **** 
 475              		.loc 1 557 0
 476              		@ sp needed
 477 0020 10BD     		pop	{r4, pc}
 478              	.L30:
 479 0022 C046     		.align	2
 480              	.L29:
 481 0024 00010540 		.word	1074069760
 482 0028 FF00FFFF 		.word	-65281
 483              		.cfi_endproc
 484              	.LFE11:
 485              		.size	Timer_1_SetPWMDeadTime, .-Timer_1_SetPWMDeadTime
 486              		.section	.text.Timer_1_SetPWMInvert,"ax",%progbits
 487              		.align	1
 488              		.global	Timer_1_SetPWMInvert
 489              		.code	16
 490              		.thumb_func
 491              		.type	Timer_1_SetPWMInvert, %function
 492              	Timer_1_SetPWMInvert:
 493              	.LFB12:
 580:.\Generated_Source\PSoC4/Timer_1.c ****     uint8 enableInterrupts;
 494              		.loc 1 580 0
 495              		.cfi_startproc
 496              	.LVL35:
 497 0000 10B5     		push	{r4, lr}
 498              		.cfi_def_cfa_offset 8
 499              		.cfi_offset 4, -8
 500              		.cfi_offset 14, -4
 580:.\Generated_Source\PSoC4/Timer_1.c ****     uint8 enableInterrupts;
 501              		.loc 1 580 0
 502 0002 041C     		mov	r4, r0
 583:.\Generated_Source\PSoC4/Timer_1.c **** 
 503              		.loc 1 583 0
 504 0004 FFF7FEFF 		bl	CyEnterCriticalSection
 505              	.LVL36:
 585:.\Generated_Source\PSoC4/Timer_1.c ****     Timer_1_CONTROL_REG |= mask;
 506              		.loc 1 585 0
 507 0008 054B     		ldr	r3, .L32
 508 000a 064A     		ldr	r2, .L32+4
 509 000c 1968     		ldr	r1, [r3]
 589:.\Generated_Source\PSoC4/Timer_1.c **** 
 510              		.loc 1 589 0
 511              		@ sp needed
ARM GAS  C:\Users\gizmo\AppData\Local\Temp\cc1VMdzg.s 			page 34


 585:.\Generated_Source\PSoC4/Timer_1.c ****     Timer_1_CONTROL_REG |= mask;
 512              		.loc 1 585 0
 513 000e 0A40     		and	r2, r1
 514 0010 1A60     		str	r2, [r3]
 586:.\Generated_Source\PSoC4/Timer_1.c **** 
 515              		.loc 1 586 0
 516 0012 1A68     		ldr	r2, [r3]
 517 0014 2243     		orr	r2, r4
 518 0016 1A60     		str	r2, [r3]
 588:.\Generated_Source\PSoC4/Timer_1.c **** }
 519              		.loc 1 588 0
 520 0018 FFF7FEFF 		bl	CyExitCriticalSection
 521              	.LVL37:
 522              	.LVL38:
 589:.\Generated_Source\PSoC4/Timer_1.c **** 
 523              		.loc 1 589 0
 524 001c 10BD     		pop	{r4, pc}
 525              	.L33:
 526 001e C046     		.align	2
 527              	.L32:
 528 0020 00010540 		.word	1074069760
 529 0024 FFFFCFFF 		.word	-3145729
 530              		.cfi_endproc
 531              	.LFE12:
 532              		.size	Timer_1_SetPWMInvert, .-Timer_1_SetPWMInvert
 533              		.section	.text.Timer_1_WriteCounter,"ax",%progbits
 534              		.align	1
 535              		.global	Timer_1_WriteCounter
 536              		.code	16
 537              		.thumb_func
 538              		.type	Timer_1_WriteCounter, %function
 539              	Timer_1_WriteCounter:
 540              	.LFB13:
 610:.\Generated_Source\PSoC4/Timer_1.c ****     Timer_1_COUNTER_REG = (count & Timer_1_16BIT_MASK);
 541              		.loc 1 610 0
 542              		.cfi_startproc
 543              	.LVL39:
 611:.\Generated_Source\PSoC4/Timer_1.c **** }
 544              		.loc 1 611 0
 545 0000 014B     		ldr	r3, .L35
 546 0002 80B2     		uxth	r0, r0
 547              	.LVL40:
 548 0004 1860     		str	r0, [r3]
 612:.\Generated_Source\PSoC4/Timer_1.c **** 
 549              		.loc 1 612 0
 550              		@ sp needed
 551 0006 7047     		bx	lr
 552              	.L36:
 553              		.align	2
 554              	.L35:
 555 0008 08010540 		.word	1074069768
 556              		.cfi_endproc
 557              	.LFE13:
 558              		.size	Timer_1_WriteCounter, .-Timer_1_WriteCounter
 559              		.section	.text.Timer_1_ReadCounter,"ax",%progbits
 560              		.align	1
 561              		.global	Timer_1_ReadCounter
ARM GAS  C:\Users\gizmo\AppData\Local\Temp\cc1VMdzg.s 			page 35


 562              		.code	16
 563              		.thumb_func
 564              		.type	Timer_1_ReadCounter, %function
 565              	Timer_1_ReadCounter:
 566              	.LFB14:
 630:.\Generated_Source\PSoC4/Timer_1.c ****     return (Timer_1_COUNTER_REG & Timer_1_16BIT_MASK);
 567              		.loc 1 630 0
 568              		.cfi_startproc
 631:.\Generated_Source\PSoC4/Timer_1.c **** }
 569              		.loc 1 631 0
 570 0000 014B     		ldr	r3, .L38
 632:.\Generated_Source\PSoC4/Timer_1.c **** 
 571              		.loc 1 632 0
 572              		@ sp needed
 631:.\Generated_Source\PSoC4/Timer_1.c **** }
 573              		.loc 1 631 0
 574 0002 1868     		ldr	r0, [r3]
 575 0004 80B2     		uxth	r0, r0
 632:.\Generated_Source\PSoC4/Timer_1.c **** 
 576              		.loc 1 632 0
 577 0006 7047     		bx	lr
 578              	.L39:
 579              		.align	2
 580              	.L38:
 581 0008 08010540 		.word	1074069768
 582              		.cfi_endproc
 583              	.LFE14:
 584              		.size	Timer_1_ReadCounter, .-Timer_1_ReadCounter
 585              		.section	.text.Timer_1_SetCounterMode,"ax",%progbits
 586              		.align	1
 587              		.global	Timer_1_SetCounterMode
 588              		.code	16
 589              		.thumb_func
 590              		.type	Timer_1_SetCounterMode, %function
 591              	Timer_1_SetCounterMode:
 592              	.LFB15:
 659:.\Generated_Source\PSoC4/Timer_1.c ****     uint8 enableInterrupts;
 593              		.loc 1 659 0
 594              		.cfi_startproc
 595              	.LVL41:
 596 0000 10B5     		push	{r4, lr}
 597              		.cfi_def_cfa_offset 8
 598              		.cfi_offset 4, -8
 599              		.cfi_offset 14, -4
 659:.\Generated_Source\PSoC4/Timer_1.c ****     uint8 enableInterrupts;
 600              		.loc 1 659 0
 601 0002 041C     		mov	r4, r0
 662:.\Generated_Source\PSoC4/Timer_1.c **** 
 602              		.loc 1 662 0
 603 0004 FFF7FEFF 		bl	CyEnterCriticalSection
 604              	.LVL42:
 664:.\Generated_Source\PSoC4/Timer_1.c ****     Timer_1_CONTROL_REG |= counterMode;
 605              		.loc 1 664 0
 606 0008 054B     		ldr	r3, .L41
 607 000a 064A     		ldr	r2, .L41+4
 608 000c 1968     		ldr	r1, [r3]
 668:.\Generated_Source\PSoC4/Timer_1.c **** 
ARM GAS  C:\Users\gizmo\AppData\Local\Temp\cc1VMdzg.s 			page 36


 609              		.loc 1 668 0
 610              		@ sp needed
 664:.\Generated_Source\PSoC4/Timer_1.c ****     Timer_1_CONTROL_REG |= counterMode;
 611              		.loc 1 664 0
 612 000e 0A40     		and	r2, r1
 613 0010 1A60     		str	r2, [r3]
 665:.\Generated_Source\PSoC4/Timer_1.c **** 
 614              		.loc 1 665 0
 615 0012 1A68     		ldr	r2, [r3]
 616 0014 2243     		orr	r2, r4
 617 0016 1A60     		str	r2, [r3]
 667:.\Generated_Source\PSoC4/Timer_1.c **** }
 618              		.loc 1 667 0
 619 0018 FFF7FEFF 		bl	CyExitCriticalSection
 620              	.LVL43:
 621              	.LVL44:
 668:.\Generated_Source\PSoC4/Timer_1.c **** 
 622              		.loc 1 668 0
 623 001c 10BD     		pop	{r4, pc}
 624              	.L42:
 625 001e C046     		.align	2
 626              	.L41:
 627 0020 00010540 		.word	1074069760
 628 0024 FFFFFCFF 		.word	-196609
 629              		.cfi_endproc
 630              	.LFE15:
 631              		.size	Timer_1_SetCounterMode, .-Timer_1_SetCounterMode
 632              		.section	.text.Timer_1_WritePeriod,"ax",%progbits
 633              		.align	1
 634              		.global	Timer_1_WritePeriod
 635              		.code	16
 636              		.thumb_func
 637              		.type	Timer_1_WritePeriod, %function
 638              	Timer_1_WritePeriod:
 639              	.LFB16:
 688:.\Generated_Source\PSoC4/Timer_1.c ****     Timer_1_PERIOD_REG = (period & Timer_1_16BIT_MASK);
 640              		.loc 1 688 0
 641              		.cfi_startproc
 642              	.LVL45:
 689:.\Generated_Source\PSoC4/Timer_1.c **** }
 643              		.loc 1 689 0
 644 0000 014B     		ldr	r3, .L44
 645 0002 80B2     		uxth	r0, r0
 646              	.LVL46:
 647 0004 1860     		str	r0, [r3]
 690:.\Generated_Source\PSoC4/Timer_1.c **** 
 648              		.loc 1 690 0
 649              		@ sp needed
 650 0006 7047     		bx	lr
 651              	.L45:
 652              		.align	2
 653              	.L44:
 654 0008 14010540 		.word	1074069780
 655              		.cfi_endproc
 656              	.LFE16:
 657              		.size	Timer_1_WritePeriod, .-Timer_1_WritePeriod
 658              		.section	.text.Timer_1_ReadPeriod,"ax",%progbits
ARM GAS  C:\Users\gizmo\AppData\Local\Temp\cc1VMdzg.s 			page 37


 659              		.align	1
 660              		.global	Timer_1_ReadPeriod
 661              		.code	16
 662              		.thumb_func
 663              		.type	Timer_1_ReadPeriod, %function
 664              	Timer_1_ReadPeriod:
 665              	.LFB17:
 708:.\Generated_Source\PSoC4/Timer_1.c ****     return (Timer_1_PERIOD_REG & Timer_1_16BIT_MASK);
 666              		.loc 1 708 0
 667              		.cfi_startproc
 709:.\Generated_Source\PSoC4/Timer_1.c **** }
 668              		.loc 1 709 0
 669 0000 014B     		ldr	r3, .L47
 710:.\Generated_Source\PSoC4/Timer_1.c **** 
 670              		.loc 1 710 0
 671              		@ sp needed
 709:.\Generated_Source\PSoC4/Timer_1.c **** }
 672              		.loc 1 709 0
 673 0002 1868     		ldr	r0, [r3]
 674 0004 80B2     		uxth	r0, r0
 710:.\Generated_Source\PSoC4/Timer_1.c **** 
 675              		.loc 1 710 0
 676 0006 7047     		bx	lr
 677              	.L48:
 678              		.align	2
 679              	.L47:
 680 0008 14010540 		.word	1074069780
 681              		.cfi_endproc
 682              	.LFE17:
 683              		.size	Timer_1_ReadPeriod, .-Timer_1_ReadPeriod
 684              		.section	.text.Timer_1_SetCompareSwap,"ax",%progbits
 685              		.align	1
 686              		.global	Timer_1_SetCompareSwap
 687              		.code	16
 688              		.thumb_func
 689              		.type	Timer_1_SetCompareSwap, %function
 690              	Timer_1_SetCompareSwap:
 691              	.LFB18:
 734:.\Generated_Source\PSoC4/Timer_1.c ****     uint8 enableInterrupts;
 692              		.loc 1 734 0
 693              		.cfi_startproc
 694              	.LVL47:
 695 0000 10B5     		push	{r4, lr}
 696              		.cfi_def_cfa_offset 8
 697              		.cfi_offset 4, -8
 698              		.cfi_offset 14, -4
 734:.\Generated_Source\PSoC4/Timer_1.c ****     uint8 enableInterrupts;
 699              		.loc 1 734 0
 700 0002 041C     		mov	r4, r0
 737:.\Generated_Source\PSoC4/Timer_1.c **** 
 701              		.loc 1 737 0
 702 0004 FFF7FEFF 		bl	CyEnterCriticalSection
 703              	.LVL48:
 739:.\Generated_Source\PSoC4/Timer_1.c ****     Timer_1_CONTROL_REG |= (swapEnable & Timer_1_1BIT_MASK);
 704              		.loc 1 739 0
 705 0008 0122     		mov	r2, #1
 706 000a 054B     		ldr	r3, .L50
ARM GAS  C:\Users\gizmo\AppData\Local\Temp\cc1VMdzg.s 			page 38


 743:.\Generated_Source\PSoC4/Timer_1.c **** 
 707              		.loc 1 743 0
 708              		@ sp needed
 739:.\Generated_Source\PSoC4/Timer_1.c ****     Timer_1_CONTROL_REG |= (swapEnable & Timer_1_1BIT_MASK);
 709              		.loc 1 739 0
 710 000c 1968     		ldr	r1, [r3]
 711 000e 9143     		bic	r1, r2
 712 0010 1960     		str	r1, [r3]
 740:.\Generated_Source\PSoC4/Timer_1.c **** 
 713              		.loc 1 740 0
 714 0012 1968     		ldr	r1, [r3]
 715 0014 2240     		and	r2, r4
 716 0016 0A43     		orr	r2, r1
 717 0018 1A60     		str	r2, [r3]
 742:.\Generated_Source\PSoC4/Timer_1.c **** }
 718              		.loc 1 742 0
 719 001a FFF7FEFF 		bl	CyExitCriticalSection
 720              	.LVL49:
 721              	.LVL50:
 743:.\Generated_Source\PSoC4/Timer_1.c **** 
 722              		.loc 1 743 0
 723 001e 10BD     		pop	{r4, pc}
 724              	.L51:
 725              		.align	2
 726              	.L50:
 727 0020 00010540 		.word	1074069760
 728              		.cfi_endproc
 729              	.LFE18:
 730              		.size	Timer_1_SetCompareSwap, .-Timer_1_SetCompareSwap
 731              		.section	.text.Timer_1_WritePeriodBuf,"ax",%progbits
 732              		.align	1
 733              		.global	Timer_1_WritePeriodBuf
 734              		.code	16
 735              		.thumb_func
 736              		.type	Timer_1_WritePeriodBuf, %function
 737              	Timer_1_WritePeriodBuf:
 738              	.LFB19:
 761:.\Generated_Source\PSoC4/Timer_1.c ****     Timer_1_PERIOD_BUF_REG = (periodBuf & Timer_1_16BIT_MASK);
 739              		.loc 1 761 0
 740              		.cfi_startproc
 741              	.LVL51:
 762:.\Generated_Source\PSoC4/Timer_1.c **** }
 742              		.loc 1 762 0
 743 0000 014B     		ldr	r3, .L53
 744 0002 80B2     		uxth	r0, r0
 745              	.LVL52:
 746 0004 1860     		str	r0, [r3]
 763:.\Generated_Source\PSoC4/Timer_1.c **** 
 747              		.loc 1 763 0
 748              		@ sp needed
 749 0006 7047     		bx	lr
 750              	.L54:
 751              		.align	2
 752              	.L53:
 753 0008 18010540 		.word	1074069784
 754              		.cfi_endproc
 755              	.LFE19:
ARM GAS  C:\Users\gizmo\AppData\Local\Temp\cc1VMdzg.s 			page 39


 756              		.size	Timer_1_WritePeriodBuf, .-Timer_1_WritePeriodBuf
 757              		.section	.text.Timer_1_ReadPeriodBuf,"ax",%progbits
 758              		.align	1
 759              		.global	Timer_1_ReadPeriodBuf
 760              		.code	16
 761              		.thumb_func
 762              		.type	Timer_1_ReadPeriodBuf, %function
 763              	Timer_1_ReadPeriodBuf:
 764              	.LFB20:
 781:.\Generated_Source\PSoC4/Timer_1.c ****     return (Timer_1_PERIOD_BUF_REG & Timer_1_16BIT_MASK);
 765              		.loc 1 781 0
 766              		.cfi_startproc
 782:.\Generated_Source\PSoC4/Timer_1.c **** }
 767              		.loc 1 782 0
 768 0000 014B     		ldr	r3, .L56
 783:.\Generated_Source\PSoC4/Timer_1.c **** 
 769              		.loc 1 783 0
 770              		@ sp needed
 782:.\Generated_Source\PSoC4/Timer_1.c **** }
 771              		.loc 1 782 0
 772 0002 1868     		ldr	r0, [r3]
 773 0004 80B2     		uxth	r0, r0
 783:.\Generated_Source\PSoC4/Timer_1.c **** 
 774              		.loc 1 783 0
 775 0006 7047     		bx	lr
 776              	.L57:
 777              		.align	2
 778              	.L56:
 779 0008 18010540 		.word	1074069784
 780              		.cfi_endproc
 781              	.LFE20:
 782              		.size	Timer_1_ReadPeriodBuf, .-Timer_1_ReadPeriodBuf
 783              		.section	.text.Timer_1_SetPeriodSwap,"ax",%progbits
 784              		.align	1
 785              		.global	Timer_1_SetPeriodSwap
 786              		.code	16
 787              		.thumb_func
 788              		.type	Timer_1_SetPeriodSwap, %function
 789              	Timer_1_SetPeriodSwap:
 790              	.LFB21:
 807:.\Generated_Source\PSoC4/Timer_1.c ****     uint8 enableInterrupts;
 791              		.loc 1 807 0
 792              		.cfi_startproc
 793              	.LVL53:
 794 0000 10B5     		push	{r4, lr}
 795              		.cfi_def_cfa_offset 8
 796              		.cfi_offset 4, -8
 797              		.cfi_offset 14, -4
 807:.\Generated_Source\PSoC4/Timer_1.c ****     uint8 enableInterrupts;
 798              		.loc 1 807 0
 799 0002 041C     		mov	r4, r0
 810:.\Generated_Source\PSoC4/Timer_1.c **** 
 800              		.loc 1 810 0
 801 0004 FFF7FEFF 		bl	CyEnterCriticalSection
 802              	.LVL54:
 812:.\Generated_Source\PSoC4/Timer_1.c ****     Timer_1_CONTROL_REG |= ((uint32)((swapEnable & Timer_1_1BIT_MASK) <<
 803              		.loc 1 812 0
ARM GAS  C:\Users\gizmo\AppData\Local\Temp\cc1VMdzg.s 			page 40


 804 0008 0221     		mov	r1, #2
 805 000a 064A     		ldr	r2, .L59
 817:.\Generated_Source\PSoC4/Timer_1.c **** 
 806              		.loc 1 817 0
 807              		@ sp needed
 812:.\Generated_Source\PSoC4/Timer_1.c ****     Timer_1_CONTROL_REG |= ((uint32)((swapEnable & Timer_1_1BIT_MASK) <<
 808              		.loc 1 812 0
 809 000c 1368     		ldr	r3, [r2]
 810 000e 8B43     		bic	r3, r1
 811 0010 1360     		str	r3, [r2]
 813:.\Generated_Source\PSoC4/Timer_1.c ****                                                             Timer_1_RELOAD_PERIOD_SHIFT));
 812              		.loc 1 813 0
 813 0012 0123     		mov	r3, #1
 814 0014 1168     		ldr	r1, [r2]
 815 0016 2340     		and	r3, r4
 816 0018 5B00     		lsl	r3, r3, #1
 817 001a 0B43     		orr	r3, r1
 818 001c 1360     		str	r3, [r2]
 816:.\Generated_Source\PSoC4/Timer_1.c **** }
 819              		.loc 1 816 0
 820 001e FFF7FEFF 		bl	CyExitCriticalSection
 821              	.LVL55:
 822              	.LVL56:
 817:.\Generated_Source\PSoC4/Timer_1.c **** 
 823              		.loc 1 817 0
 824 0022 10BD     		pop	{r4, pc}
 825              	.L60:
 826              		.align	2
 827              	.L59:
 828 0024 00010540 		.word	1074069760
 829              		.cfi_endproc
 830              	.LFE21:
 831              		.size	Timer_1_SetPeriodSwap, .-Timer_1_SetPeriodSwap
 832              		.section	.text.Timer_1_WriteCompare,"ax",%progbits
 833              		.align	1
 834              		.global	Timer_1_WriteCompare
 835              		.code	16
 836              		.thumb_func
 837              		.type	Timer_1_WriteCompare, %function
 838              	Timer_1_WriteCompare:
 839              	.LFB22:
 836:.\Generated_Source\PSoC4/Timer_1.c ****     #if (Timer_1_CY_TCPWM_4000)
 840              		.loc 1 836 0
 841              		.cfi_startproc
 842              	.LVL57:
 859:.\Generated_Source\PSoC4/Timer_1.c **** }
 843              		.loc 1 859 0
 844 0000 014B     		ldr	r3, .L62
 845 0002 80B2     		uxth	r0, r0
 846              	.LVL58:
 847 0004 1860     		str	r0, [r3]
 860:.\Generated_Source\PSoC4/Timer_1.c **** 
 848              		.loc 1 860 0
 849              		@ sp needed
 850 0006 7047     		bx	lr
 851              	.L63:
 852              		.align	2
ARM GAS  C:\Users\gizmo\AppData\Local\Temp\cc1VMdzg.s 			page 41


 853              	.L62:
 854 0008 0C010540 		.word	1074069772
 855              		.cfi_endproc
 856              	.LFE22:
 857              		.size	Timer_1_WriteCompare, .-Timer_1_WriteCompare
 858              		.section	.text.Timer_1_ReadCompare,"ax",%progbits
 859              		.align	1
 860              		.global	Timer_1_ReadCompare
 861              		.code	16
 862              		.thumb_func
 863              		.type	Timer_1_ReadCompare, %function
 864              	Timer_1_ReadCompare:
 865              	.LFB23:
 879:.\Generated_Source\PSoC4/Timer_1.c ****     #if (Timer_1_CY_TCPWM_4000)
 866              		.loc 1 879 0
 867              		.cfi_startproc
 904:.\Generated_Source\PSoC4/Timer_1.c ****     #endif /* (Timer_1_CY_TCPWM_4000) */
 868              		.loc 1 904 0
 869 0000 014B     		ldr	r3, .L65
 906:.\Generated_Source\PSoC4/Timer_1.c **** 
 870              		.loc 1 906 0
 871              		@ sp needed
 904:.\Generated_Source\PSoC4/Timer_1.c ****     #endif /* (Timer_1_CY_TCPWM_4000) */
 872              		.loc 1 904 0
 873 0002 1868     		ldr	r0, [r3]
 874 0004 80B2     		uxth	r0, r0
 906:.\Generated_Source\PSoC4/Timer_1.c **** 
 875              		.loc 1 906 0
 876 0006 7047     		bx	lr
 877              	.L66:
 878              		.align	2
 879              	.L65:
 880 0008 0C010540 		.word	1074069772
 881              		.cfi_endproc
 882              	.LFE23:
 883              		.size	Timer_1_ReadCompare, .-Timer_1_ReadCompare
 884              		.section	.text.Timer_1_WriteCompareBuf,"ax",%progbits
 885              		.align	1
 886              		.global	Timer_1_WriteCompareBuf
 887              		.code	16
 888              		.thumb_func
 889              		.type	Timer_1_WriteCompareBuf, %function
 890              	Timer_1_WriteCompareBuf:
 891              	.LFB24:
 925:.\Generated_Source\PSoC4/Timer_1.c ****     #if (Timer_1_CY_TCPWM_4000)
 892              		.loc 1 925 0
 893              		.cfi_startproc
 894              	.LVL59:
 946:.\Generated_Source\PSoC4/Timer_1.c **** }
 895              		.loc 1 946 0
 896 0000 014B     		ldr	r3, .L68
 897 0002 80B2     		uxth	r0, r0
 898              	.LVL60:
 899 0004 1860     		str	r0, [r3]
 947:.\Generated_Source\PSoC4/Timer_1.c **** 
 900              		.loc 1 947 0
 901              		@ sp needed
ARM GAS  C:\Users\gizmo\AppData\Local\Temp\cc1VMdzg.s 			page 42


 902 0006 7047     		bx	lr
 903              	.L69:
 904              		.align	2
 905              	.L68:
 906 0008 10010540 		.word	1074069776
 907              		.cfi_endproc
 908              	.LFE24:
 909              		.size	Timer_1_WriteCompareBuf, .-Timer_1_WriteCompareBuf
 910              		.section	.text.Timer_1_ReadCompareBuf,"ax",%progbits
 911              		.align	1
 912              		.global	Timer_1_ReadCompareBuf
 913              		.code	16
 914              		.thumb_func
 915              		.type	Timer_1_ReadCompareBuf, %function
 916              	Timer_1_ReadCompareBuf:
 917              	.LFB25:
 966:.\Generated_Source\PSoC4/Timer_1.c ****     #if (Timer_1_CY_TCPWM_4000)
 918              		.loc 1 966 0
 919              		.cfi_startproc
 991:.\Generated_Source\PSoC4/Timer_1.c ****     #endif /* (Timer_1_CY_TCPWM_4000) */
 920              		.loc 1 991 0
 921 0000 014B     		ldr	r3, .L71
 993:.\Generated_Source\PSoC4/Timer_1.c **** 
 922              		.loc 1 993 0
 923              		@ sp needed
 991:.\Generated_Source\PSoC4/Timer_1.c ****     #endif /* (Timer_1_CY_TCPWM_4000) */
 924              		.loc 1 991 0
 925 0002 1868     		ldr	r0, [r3]
 926 0004 80B2     		uxth	r0, r0
 993:.\Generated_Source\PSoC4/Timer_1.c **** 
 927              		.loc 1 993 0
 928 0006 7047     		bx	lr
 929              	.L72:
 930              		.align	2
 931              	.L71:
 932 0008 10010540 		.word	1074069776
 933              		.cfi_endproc
 934              	.LFE25:
 935              		.size	Timer_1_ReadCompareBuf, .-Timer_1_ReadCompareBuf
 936              		.section	.text.Timer_1_ReadCapture,"ax",%progbits
 937              		.align	1
 938              		.global	Timer_1_ReadCapture
 939              		.code	16
 940              		.thumb_func
 941              		.type	Timer_1_ReadCapture, %function
 942              	Timer_1_ReadCapture:
 943              	.LFB26:
1012:.\Generated_Source\PSoC4/Timer_1.c ****     return (Timer_1_COMP_CAP_REG & Timer_1_16BIT_MASK);
 944              		.loc 1 1012 0
 945              		.cfi_startproc
1013:.\Generated_Source\PSoC4/Timer_1.c **** }
 946              		.loc 1 1013 0
 947 0000 014B     		ldr	r3, .L74
1014:.\Generated_Source\PSoC4/Timer_1.c **** 
 948              		.loc 1 1014 0
 949              		@ sp needed
1013:.\Generated_Source\PSoC4/Timer_1.c **** }
ARM GAS  C:\Users\gizmo\AppData\Local\Temp\cc1VMdzg.s 			page 43


 950              		.loc 1 1013 0
 951 0002 1868     		ldr	r0, [r3]
 952 0004 80B2     		uxth	r0, r0
1014:.\Generated_Source\PSoC4/Timer_1.c **** 
 953              		.loc 1 1014 0
 954 0006 7047     		bx	lr
 955              	.L75:
 956              		.align	2
 957              	.L74:
 958 0008 0C010540 		.word	1074069772
 959              		.cfi_endproc
 960              	.LFE26:
 961              		.size	Timer_1_ReadCapture, .-Timer_1_ReadCapture
 962              		.section	.text.Timer_1_ReadCaptureBuf,"ax",%progbits
 963              		.align	1
 964              		.global	Timer_1_ReadCaptureBuf
 965              		.code	16
 966              		.thumb_func
 967              		.type	Timer_1_ReadCaptureBuf, %function
 968              	Timer_1_ReadCaptureBuf:
 969              	.LFB27:
1033:.\Generated_Source\PSoC4/Timer_1.c ****     return (Timer_1_COMP_CAP_BUF_REG & Timer_1_16BIT_MASK);
 970              		.loc 1 1033 0
 971              		.cfi_startproc
1034:.\Generated_Source\PSoC4/Timer_1.c **** }
 972              		.loc 1 1034 0
 973 0000 014B     		ldr	r3, .L77
1035:.\Generated_Source\PSoC4/Timer_1.c **** 
 974              		.loc 1 1035 0
 975              		@ sp needed
1034:.\Generated_Source\PSoC4/Timer_1.c **** }
 976              		.loc 1 1034 0
 977 0002 1868     		ldr	r0, [r3]
 978 0004 80B2     		uxth	r0, r0
1035:.\Generated_Source\PSoC4/Timer_1.c **** 
 979              		.loc 1 1035 0
 980 0006 7047     		bx	lr
 981              	.L78:
 982              		.align	2
 983              	.L77:
 984 0008 10010540 		.word	1074069776
 985              		.cfi_endproc
 986              	.LFE27:
 987              		.size	Timer_1_ReadCaptureBuf, .-Timer_1_ReadCaptureBuf
 988              		.section	.text.Timer_1_SetCaptureMode,"ax",%progbits
 989              		.align	1
 990              		.global	Timer_1_SetCaptureMode
 991              		.code	16
 992              		.thumb_func
 993              		.type	Timer_1_SetCaptureMode, %function
 994              	Timer_1_SetCaptureMode:
 995              	.LFB28:
1060:.\Generated_Source\PSoC4/Timer_1.c ****     uint8 enableInterrupts;
 996              		.loc 1 1060 0
 997              		.cfi_startproc
 998              	.LVL61:
 999 0000 10B5     		push	{r4, lr}
ARM GAS  C:\Users\gizmo\AppData\Local\Temp\cc1VMdzg.s 			page 44


 1000              		.cfi_def_cfa_offset 8
 1001              		.cfi_offset 4, -8
 1002              		.cfi_offset 14, -4
1060:.\Generated_Source\PSoC4/Timer_1.c ****     uint8 enableInterrupts;
 1003              		.loc 1 1060 0
 1004 0002 041C     		mov	r4, r0
1063:.\Generated_Source\PSoC4/Timer_1.c **** 
 1005              		.loc 1 1063 0
 1006 0004 FFF7FEFF 		bl	CyEnterCriticalSection
 1007              	.LVL62:
1065:.\Generated_Source\PSoC4/Timer_1.c ****     Timer_1_TRIG_CONTROL1_REG |= triggerMode;
 1008              		.loc 1 1065 0
 1009 0008 0321     		mov	r1, #3
 1010 000a 054B     		ldr	r3, .L80
1069:.\Generated_Source\PSoC4/Timer_1.c **** 
 1011              		.loc 1 1069 0
 1012              		@ sp needed
1065:.\Generated_Source\PSoC4/Timer_1.c ****     Timer_1_TRIG_CONTROL1_REG |= triggerMode;
 1013              		.loc 1 1065 0
 1014 000c 1A68     		ldr	r2, [r3]
 1015 000e 8A43     		bic	r2, r1
 1016 0010 1A60     		str	r2, [r3]
1066:.\Generated_Source\PSoC4/Timer_1.c **** 
 1017              		.loc 1 1066 0
 1018 0012 1A68     		ldr	r2, [r3]
 1019 0014 2243     		orr	r2, r4
 1020 0016 1A60     		str	r2, [r3]
1068:.\Generated_Source\PSoC4/Timer_1.c **** }
 1021              		.loc 1 1068 0
 1022 0018 FFF7FEFF 		bl	CyExitCriticalSection
 1023              	.LVL63:
 1024              	.LVL64:
1069:.\Generated_Source\PSoC4/Timer_1.c **** 
 1025              		.loc 1 1069 0
 1026 001c 10BD     		pop	{r4, pc}
 1027              	.L81:
 1028 001e C046     		.align	2
 1029              	.L80:
 1030 0020 24010540 		.word	1074069796
 1031              		.cfi_endproc
 1032              	.LFE28:
 1033              		.size	Timer_1_SetCaptureMode, .-Timer_1_SetCaptureMode
 1034              		.section	.text.Timer_1_SetReloadMode,"ax",%progbits
 1035              		.align	1
 1036              		.global	Timer_1_SetReloadMode
 1037              		.code	16
 1038              		.thumb_func
 1039              		.type	Timer_1_SetReloadMode, %function
 1040              	Timer_1_SetReloadMode:
 1041              	.LFB29:
1093:.\Generated_Source\PSoC4/Timer_1.c ****     uint8 enableInterrupts;
 1042              		.loc 1 1093 0
 1043              		.cfi_startproc
 1044              	.LVL65:
 1045 0000 10B5     		push	{r4, lr}
 1046              		.cfi_def_cfa_offset 8
 1047              		.cfi_offset 4, -8
ARM GAS  C:\Users\gizmo\AppData\Local\Temp\cc1VMdzg.s 			page 45


 1048              		.cfi_offset 14, -4
1093:.\Generated_Source\PSoC4/Timer_1.c ****     uint8 enableInterrupts;
 1049              		.loc 1 1093 0
 1050 0002 041C     		mov	r4, r0
1096:.\Generated_Source\PSoC4/Timer_1.c **** 
 1051              		.loc 1 1096 0
 1052 0004 FFF7FEFF 		bl	CyEnterCriticalSection
 1053              	.LVL66:
1098:.\Generated_Source\PSoC4/Timer_1.c ****     Timer_1_TRIG_CONTROL1_REG |= ((uint32)(triggerMode << Timer_1_RELOAD_SHIFT));
 1054              		.loc 1 1098 0
 1055 0008 3021     		mov	r1, #48
 1056 000a 054B     		ldr	r3, .L83
1102:.\Generated_Source\PSoC4/Timer_1.c **** 
 1057              		.loc 1 1102 0
 1058              		@ sp needed
1098:.\Generated_Source\PSoC4/Timer_1.c ****     Timer_1_TRIG_CONTROL1_REG |= ((uint32)(triggerMode << Timer_1_RELOAD_SHIFT));
 1059              		.loc 1 1098 0
 1060 000c 1A68     		ldr	r2, [r3]
 1061 000e 8A43     		bic	r2, r1
 1062 0010 1A60     		str	r2, [r3]
1099:.\Generated_Source\PSoC4/Timer_1.c **** 
 1063              		.loc 1 1099 0
 1064 0012 1968     		ldr	r1, [r3]
 1065 0014 2201     		lsl	r2, r4, #4
 1066 0016 0A43     		orr	r2, r1
 1067 0018 1A60     		str	r2, [r3]
1101:.\Generated_Source\PSoC4/Timer_1.c **** }
 1068              		.loc 1 1101 0
 1069 001a FFF7FEFF 		bl	CyExitCriticalSection
 1070              	.LVL67:
 1071              	.LVL68:
1102:.\Generated_Source\PSoC4/Timer_1.c **** 
 1072              		.loc 1 1102 0
 1073 001e 10BD     		pop	{r4, pc}
 1074              	.L84:
 1075              		.align	2
 1076              	.L83:
 1077 0020 24010540 		.word	1074069796
 1078              		.cfi_endproc
 1079              	.LFE29:
 1080              		.size	Timer_1_SetReloadMode, .-Timer_1_SetReloadMode
 1081              		.section	.text.Timer_1_SetStartMode,"ax",%progbits
 1082              		.align	1
 1083              		.global	Timer_1_SetStartMode
 1084              		.code	16
 1085              		.thumb_func
 1086              		.type	Timer_1_SetStartMode, %function
 1087              	Timer_1_SetStartMode:
 1088              	.LFB30:
1126:.\Generated_Source\PSoC4/Timer_1.c ****     uint8 enableInterrupts;
 1089              		.loc 1 1126 0
 1090              		.cfi_startproc
 1091              	.LVL69:
 1092 0000 10B5     		push	{r4, lr}
 1093              		.cfi_def_cfa_offset 8
 1094              		.cfi_offset 4, -8
 1095              		.cfi_offset 14, -4
ARM GAS  C:\Users\gizmo\AppData\Local\Temp\cc1VMdzg.s 			page 46


1126:.\Generated_Source\PSoC4/Timer_1.c ****     uint8 enableInterrupts;
 1096              		.loc 1 1126 0
 1097 0002 041C     		mov	r4, r0
1129:.\Generated_Source\PSoC4/Timer_1.c **** 
 1098              		.loc 1 1129 0
 1099 0004 FFF7FEFF 		bl	CyEnterCriticalSection
 1100              	.LVL70:
1131:.\Generated_Source\PSoC4/Timer_1.c ****     Timer_1_TRIG_CONTROL1_REG |= ((uint32)(triggerMode << Timer_1_START_SHIFT));
 1101              		.loc 1 1131 0
 1102 0008 054B     		ldr	r3, .L86
 1103 000a 064A     		ldr	r2, .L86+4
 1104 000c 1968     		ldr	r1, [r3]
1135:.\Generated_Source\PSoC4/Timer_1.c **** 
 1105              		.loc 1 1135 0
 1106              		@ sp needed
1131:.\Generated_Source\PSoC4/Timer_1.c ****     Timer_1_TRIG_CONTROL1_REG |= ((uint32)(triggerMode << Timer_1_START_SHIFT));
 1107              		.loc 1 1131 0
 1108 000e 0A40     		and	r2, r1
 1109 0010 1A60     		str	r2, [r3]
1132:.\Generated_Source\PSoC4/Timer_1.c **** 
 1110              		.loc 1 1132 0
 1111 0012 1968     		ldr	r1, [r3]
 1112 0014 2202     		lsl	r2, r4, #8
 1113 0016 0A43     		orr	r2, r1
 1114 0018 1A60     		str	r2, [r3]
1134:.\Generated_Source\PSoC4/Timer_1.c **** }
 1115              		.loc 1 1134 0
 1116 001a FFF7FEFF 		bl	CyExitCriticalSection
 1117              	.LVL71:
 1118              	.LVL72:
1135:.\Generated_Source\PSoC4/Timer_1.c **** 
 1119              		.loc 1 1135 0
 1120 001e 10BD     		pop	{r4, pc}
 1121              	.L87:
 1122              		.align	2
 1123              	.L86:
 1124 0020 24010540 		.word	1074069796
 1125 0024 FFFCFFFF 		.word	-769
 1126              		.cfi_endproc
 1127              	.LFE30:
 1128              		.size	Timer_1_SetStartMode, .-Timer_1_SetStartMode
 1129              		.section	.text.Timer_1_SetStopMode,"ax",%progbits
 1130              		.align	1
 1131              		.global	Timer_1_SetStopMode
 1132              		.code	16
 1133              		.thumb_func
 1134              		.type	Timer_1_SetStopMode, %function
 1135              	Timer_1_SetStopMode:
 1136              	.LFB31:
1158:.\Generated_Source\PSoC4/Timer_1.c ****     uint8 enableInterrupts;
 1137              		.loc 1 1158 0
 1138              		.cfi_startproc
 1139              	.LVL73:
 1140 0000 10B5     		push	{r4, lr}
 1141              		.cfi_def_cfa_offset 8
 1142              		.cfi_offset 4, -8
 1143              		.cfi_offset 14, -4
ARM GAS  C:\Users\gizmo\AppData\Local\Temp\cc1VMdzg.s 			page 47


1158:.\Generated_Source\PSoC4/Timer_1.c ****     uint8 enableInterrupts;
 1144              		.loc 1 1158 0
 1145 0002 041C     		mov	r4, r0
1161:.\Generated_Source\PSoC4/Timer_1.c **** 
 1146              		.loc 1 1161 0
 1147 0004 FFF7FEFF 		bl	CyEnterCriticalSection
 1148              	.LVL74:
1163:.\Generated_Source\PSoC4/Timer_1.c ****     Timer_1_TRIG_CONTROL1_REG |= ((uint32)(triggerMode << Timer_1_STOP_SHIFT));
 1149              		.loc 1 1163 0
 1150 0008 C021     		mov	r1, #192
 1151 000a 054B     		ldr	r3, .L89
1167:.\Generated_Source\PSoC4/Timer_1.c **** 
 1152              		.loc 1 1167 0
 1153              		@ sp needed
1163:.\Generated_Source\PSoC4/Timer_1.c ****     Timer_1_TRIG_CONTROL1_REG |= ((uint32)(triggerMode << Timer_1_STOP_SHIFT));
 1154              		.loc 1 1163 0
 1155 000c 1A68     		ldr	r2, [r3]
 1156 000e 8A43     		bic	r2, r1
 1157 0010 1A60     		str	r2, [r3]
1164:.\Generated_Source\PSoC4/Timer_1.c **** 
 1158              		.loc 1 1164 0
 1159 0012 1968     		ldr	r1, [r3]
 1160 0014 A201     		lsl	r2, r4, #6
 1161 0016 0A43     		orr	r2, r1
 1162 0018 1A60     		str	r2, [r3]
1166:.\Generated_Source\PSoC4/Timer_1.c **** }
 1163              		.loc 1 1166 0
 1164 001a FFF7FEFF 		bl	CyExitCriticalSection
 1165              	.LVL75:
 1166              	.LVL76:
1167:.\Generated_Source\PSoC4/Timer_1.c **** 
 1167              		.loc 1 1167 0
 1168 001e 10BD     		pop	{r4, pc}
 1169              	.L90:
 1170              		.align	2
 1171              	.L89:
 1172 0020 24010540 		.word	1074069796
 1173              		.cfi_endproc
 1174              	.LFE31:
 1175              		.size	Timer_1_SetStopMode, .-Timer_1_SetStopMode
 1176              		.section	.text.Timer_1_SetCountMode,"ax",%progbits
 1177              		.align	1
 1178              		.global	Timer_1_SetCountMode
 1179              		.code	16
 1180              		.thumb_func
 1181              		.type	Timer_1_SetCountMode, %function
 1182              	Timer_1_SetCountMode:
 1183              	.LFB32:
1191:.\Generated_Source\PSoC4/Timer_1.c ****     uint8 enableInterrupts;
 1184              		.loc 1 1191 0
 1185              		.cfi_startproc
 1186              	.LVL77:
 1187 0000 10B5     		push	{r4, lr}
 1188              		.cfi_def_cfa_offset 8
 1189              		.cfi_offset 4, -8
 1190              		.cfi_offset 14, -4
1191:.\Generated_Source\PSoC4/Timer_1.c ****     uint8 enableInterrupts;
ARM GAS  C:\Users\gizmo\AppData\Local\Temp\cc1VMdzg.s 			page 48


 1191              		.loc 1 1191 0
 1192 0002 041C     		mov	r4, r0
1194:.\Generated_Source\PSoC4/Timer_1.c **** 
 1193              		.loc 1 1194 0
 1194 0004 FFF7FEFF 		bl	CyEnterCriticalSection
 1195              	.LVL78:
1196:.\Generated_Source\PSoC4/Timer_1.c ****     Timer_1_TRIG_CONTROL1_REG |= ((uint32)(triggerMode << Timer_1_COUNT_SHIFT));
 1196              		.loc 1 1196 0
 1197 0008 0C21     		mov	r1, #12
 1198 000a 054B     		ldr	r3, .L92
1200:.\Generated_Source\PSoC4/Timer_1.c **** 
 1199              		.loc 1 1200 0
 1200              		@ sp needed
1196:.\Generated_Source\PSoC4/Timer_1.c ****     Timer_1_TRIG_CONTROL1_REG |= ((uint32)(triggerMode << Timer_1_COUNT_SHIFT));
 1201              		.loc 1 1196 0
 1202 000c 1A68     		ldr	r2, [r3]
 1203 000e 8A43     		bic	r2, r1
 1204 0010 1A60     		str	r2, [r3]
1197:.\Generated_Source\PSoC4/Timer_1.c **** 
 1205              		.loc 1 1197 0
 1206 0012 1968     		ldr	r1, [r3]
 1207 0014 A200     		lsl	r2, r4, #2
 1208 0016 0A43     		orr	r2, r1
 1209 0018 1A60     		str	r2, [r3]
1199:.\Generated_Source\PSoC4/Timer_1.c **** }
 1210              		.loc 1 1199 0
 1211 001a FFF7FEFF 		bl	CyExitCriticalSection
 1212              	.LVL79:
 1213              	.LVL80:
1200:.\Generated_Source\PSoC4/Timer_1.c **** 
 1214              		.loc 1 1200 0
 1215 001e 10BD     		pop	{r4, pc}
 1216              	.L93:
 1217              		.align	2
 1218              	.L92:
 1219 0020 24010540 		.word	1074069796
 1220              		.cfi_endproc
 1221              	.LFE32:
 1222              		.size	Timer_1_SetCountMode, .-Timer_1_SetCountMode
 1223              		.section	.text.Timer_1_TriggerCommand,"ax",%progbits
 1224              		.align	1
 1225              		.global	Timer_1_TriggerCommand
 1226              		.code	16
 1227              		.thumb_func
 1228              		.type	Timer_1_TriggerCommand, %function
 1229              	Timer_1_TriggerCommand:
 1230              	.LFB33:
1231:.\Generated_Source\PSoC4/Timer_1.c ****     uint8 enableInterrupts;
 1231              		.loc 1 1231 0
 1232              		.cfi_startproc
 1233              	.LVL81:
 1234 0000 38B5     		push	{r3, r4, r5, lr}
 1235              		.cfi_def_cfa_offset 16
 1236              		.cfi_offset 3, -16
 1237              		.cfi_offset 4, -12
 1238              		.cfi_offset 5, -8
 1239              		.cfi_offset 14, -4
ARM GAS  C:\Users\gizmo\AppData\Local\Temp\cc1VMdzg.s 			page 49


1231:.\Generated_Source\PSoC4/Timer_1.c ****     uint8 enableInterrupts;
 1240              		.loc 1 1231 0
 1241 0002 0D1C     		mov	r5, r1
 1242 0004 041C     		mov	r4, r0
1236:.\Generated_Source\PSoC4/Timer_1.c **** 
 1243              		.loc 1 1236 0
 1244 0006 AC40     		lsl	r4, r4, r5
1234:.\Generated_Source\PSoC4/Timer_1.c **** 
 1245              		.loc 1 1234 0
 1246 0008 FFF7FEFF 		bl	CyEnterCriticalSection
 1247              	.LVL82:
1236:.\Generated_Source\PSoC4/Timer_1.c **** 
 1248              		.loc 1 1236 0
 1249 000c 024B     		ldr	r3, .L95
1239:.\Generated_Source\PSoC4/Timer_1.c **** 
 1250              		.loc 1 1239 0
 1251              		@ sp needed
1236:.\Generated_Source\PSoC4/Timer_1.c **** 
 1252              		.loc 1 1236 0
 1253 000e 1C60     		str	r4, [r3]
1238:.\Generated_Source\PSoC4/Timer_1.c **** }
 1254              		.loc 1 1238 0
 1255 0010 FFF7FEFF 		bl	CyExitCriticalSection
 1256              	.LVL83:
 1257              	.LVL84:
1239:.\Generated_Source\PSoC4/Timer_1.c **** 
 1258              		.loc 1 1239 0
 1259 0014 38BD     		pop	{r3, r4, r5, pc}
 1260              	.L96:
 1261 0016 C046     		.align	2
 1262              	.L95:
 1263 0018 08000540 		.word	1074069512
 1264              		.cfi_endproc
 1265              	.LFE33:
 1266              		.size	Timer_1_TriggerCommand, .-Timer_1_TriggerCommand
 1267              		.section	.text.Timer_1_Enable,"ax",%progbits
 1268              		.align	1
 1269              		.global	Timer_1_Enable
 1270              		.code	16
 1271              		.thumb_func
 1272              		.type	Timer_1_Enable, %function
 1273              	Timer_1_Enable:
 1274              	.LFB1:
 178:.\Generated_Source\PSoC4/Timer_1.c ****     uint8 enableInterrupts;
 1275              		.loc 1 178 0
 1276              		.cfi_startproc
 1277 0000 10B5     		push	{r4, lr}
 1278              		.cfi_def_cfa_offset 8
 1279              		.cfi_offset 4, -8
 1280              		.cfi_offset 14, -4
 182:.\Generated_Source\PSoC4/Timer_1.c ****     CyExitCriticalSection(enableInterrupts);
 1281              		.loc 1 182 0
 1282 0002 0124     		mov	r4, #1
 181:.\Generated_Source\PSoC4/Timer_1.c ****     Timer_1_BLOCK_CONTROL_REG |= Timer_1_MASK;
 1283              		.loc 1 181 0
 1284 0004 FFF7FEFF 		bl	CyEnterCriticalSection
 1285              	.LVL85:
ARM GAS  C:\Users\gizmo\AppData\Local\Temp\cc1VMdzg.s 			page 50


 182:.\Generated_Source\PSoC4/Timer_1.c ****     CyExitCriticalSection(enableInterrupts);
 1286              		.loc 1 182 0
 1287 0008 054A     		ldr	r2, .L98
 197:.\Generated_Source\PSoC4/Timer_1.c **** 
 1288              		.loc 1 197 0
 1289              		@ sp needed
 182:.\Generated_Source\PSoC4/Timer_1.c ****     CyExitCriticalSection(enableInterrupts);
 1290              		.loc 1 182 0
 1291 000a 1368     		ldr	r3, [r2]
 1292 000c 2343     		orr	r3, r4
 1293 000e 1360     		str	r3, [r2]
 183:.\Generated_Source\PSoC4/Timer_1.c **** 
 1294              		.loc 1 183 0
 1295 0010 FFF7FEFF 		bl	CyExitCriticalSection
 1296              	.LVL86:
 194:.\Generated_Source\PSoC4/Timer_1.c ****         #endif /* (0u == Timer_1_TC_START_SIGNAL_PRESENT) */
 1297              		.loc 1 194 0
 1298 0014 201C     		mov	r0, r4
 1299 0016 1821     		mov	r1, #24
 1300 0018 FFF7FEFF 		bl	Timer_1_TriggerCommand
 1301              	.LVL87:
 197:.\Generated_Source\PSoC4/Timer_1.c **** 
 1302              		.loc 1 197 0
 1303 001c 10BD     		pop	{r4, pc}
 1304              	.L99:
 1305 001e C046     		.align	2
 1306              	.L98:
 1307 0020 00000540 		.word	1074069504
 1308              		.cfi_endproc
 1309              	.LFE1:
 1310              		.size	Timer_1_Enable, .-Timer_1_Enable
 1311              		.section	.text.Timer_1_Start,"ax",%progbits
 1312              		.align	1
 1313              		.global	Timer_1_Start
 1314              		.code	16
 1315              		.thumb_func
 1316              		.type	Timer_1_Start, %function
 1317              	Timer_1_Start:
 1318              	.LFB2:
 225:.\Generated_Source\PSoC4/Timer_1.c ****     if (0u == Timer_1_initVar)
 1319              		.loc 1 225 0
 1320              		.cfi_startproc
 1321 0000 10B5     		push	{r4, lr}
 1322              		.cfi_def_cfa_offset 8
 1323              		.cfi_offset 4, -8
 1324              		.cfi_offset 14, -4
 226:.\Generated_Source\PSoC4/Timer_1.c ****     {
 1325              		.loc 1 226 0
 1326 0002 054C     		ldr	r4, .L103
 1327 0004 2378     		ldrb	r3, [r4]
 1328 0006 002B     		cmp	r3, #0
 1329 0008 03D1     		bne	.L101
 228:.\Generated_Source\PSoC4/Timer_1.c ****         Timer_1_initVar = 1u;
 1330              		.loc 1 228 0
 1331 000a FFF7FEFF 		bl	Timer_1_Init
 1332              	.LVL88:
 229:.\Generated_Source\PSoC4/Timer_1.c ****     }
ARM GAS  C:\Users\gizmo\AppData\Local\Temp\cc1VMdzg.s 			page 51


 1333              		.loc 1 229 0
 1334 000e 0123     		mov	r3, #1
 1335 0010 2370     		strb	r3, [r4]
 1336              	.L101:
 232:.\Generated_Source\PSoC4/Timer_1.c **** }
 1337              		.loc 1 232 0
 1338 0012 FFF7FEFF 		bl	Timer_1_Enable
 1339              	.LVL89:
 233:.\Generated_Source\PSoC4/Timer_1.c **** 
 1340              		.loc 1 233 0
 1341              		@ sp needed
 1342 0016 10BD     		pop	{r4, pc}
 1343              	.L104:
 1344              		.align	2
 1345              	.L103:
 1346 0018 00000000 		.word	.LANCHOR0
 1347              		.cfi_endproc
 1348              	.LFE2:
 1349              		.size	Timer_1_Start, .-Timer_1_Start
 1350              		.section	.text.Timer_1_ReadStatus,"ax",%progbits
 1351              		.align	1
 1352              		.global	Timer_1_ReadStatus
 1353              		.code	16
 1354              		.thumb_func
 1355              		.type	Timer_1_ReadStatus, %function
 1356              	Timer_1_ReadStatus:
 1357              	.LFB34:
1260:.\Generated_Source\PSoC4/Timer_1.c ****     return ((Timer_1_STATUS_REG >> Timer_1_RUNNING_STATUS_SHIFT) |
 1358              		.loc 1 1260 0
 1359              		.cfi_startproc
1261:.\Generated_Source\PSoC4/Timer_1.c ****             (Timer_1_STATUS_REG & Timer_1_STATUS_DOWN));
 1360              		.loc 1 1261 0
 1361 0000 034A     		ldr	r2, .L106
1263:.\Generated_Source\PSoC4/Timer_1.c **** 
 1362              		.loc 1 1263 0
 1363              		@ sp needed
1261:.\Generated_Source\PSoC4/Timer_1.c ****             (Timer_1_STATUS_REG & Timer_1_STATUS_DOWN));
 1364              		.loc 1 1261 0
 1365 0002 1368     		ldr	r3, [r2]
1262:.\Generated_Source\PSoC4/Timer_1.c **** }
 1366              		.loc 1 1262 0
 1367 0004 1068     		ldr	r0, [r2]
 1368 0006 0122     		mov	r2, #1
1261:.\Generated_Source\PSoC4/Timer_1.c ****             (Timer_1_STATUS_REG & Timer_1_STATUS_DOWN));
 1369              		.loc 1 1261 0
 1370 0008 9B0F     		lsr	r3, r3, #30
1262:.\Generated_Source\PSoC4/Timer_1.c **** }
 1371              		.loc 1 1262 0
 1372 000a 1040     		and	r0, r2
1261:.\Generated_Source\PSoC4/Timer_1.c ****             (Timer_1_STATUS_REG & Timer_1_STATUS_DOWN));
 1373              		.loc 1 1261 0
 1374 000c 1843     		orr	r0, r3
1263:.\Generated_Source\PSoC4/Timer_1.c **** 
 1375              		.loc 1 1263 0
 1376 000e 7047     		bx	lr
 1377              	.L107:
 1378              		.align	2
ARM GAS  C:\Users\gizmo\AppData\Local\Temp\cc1VMdzg.s 			page 52


 1379              	.L106:
 1380 0010 04010540 		.word	1074069764
 1381              		.cfi_endproc
 1382              	.LFE34:
 1383              		.size	Timer_1_ReadStatus, .-Timer_1_ReadStatus
 1384              		.section	.text.Timer_1_SetInterruptMode,"ax",%progbits
 1385              		.align	1
 1386              		.global	Timer_1_SetInterruptMode
 1387              		.code	16
 1388              		.thumb_func
 1389              		.type	Timer_1_SetInterruptMode, %function
 1390              	Timer_1_SetInterruptMode:
 1391              	.LFB35:
1285:.\Generated_Source\PSoC4/Timer_1.c ****     Timer_1_INTERRUPT_MASK_REG =  interruptMask;
 1392              		.loc 1 1285 0
 1393              		.cfi_startproc
 1394              	.LVL90:
 1395              		.loc 1 1286 0
 1396 0000 014B     		ldr	r3, .L109
1287:.\Generated_Source\PSoC4/Timer_1.c **** }
 1397              		.loc 1 1287 0
 1398              		@ sp needed
1286:.\Generated_Source\PSoC4/Timer_1.c **** }
 1399              		.loc 1 1286 0
 1400 0002 1860     		str	r0, [r3]
 1401              		.loc 1 1287 0
 1402 0004 7047     		bx	lr
 1403              	.L110:
 1404 0006 C046     		.align	2
 1405              	.L109:
 1406 0008 38010540 		.word	1074069816
 1407              		.cfi_endproc
 1408              	.LFE35:
 1409              		.size	Timer_1_SetInterruptMode, .-Timer_1_SetInterruptMode
 1410              		.section	.text.Timer_1_GetInterruptSourceMasked,"ax",%progbits
 1411              		.align	1
 1412              		.global	Timer_1_GetInterruptSourceMasked
 1413              		.code	16
 1414              		.thumb_func
 1415              		.type	Timer_1_GetInterruptSourceMasked, %function
 1416              	Timer_1_GetInterruptSourceMasked:
 1417              	.LFB36:
1288:.\Generated_Source\PSoC4/Timer_1.c **** 
1289:.\Generated_Source\PSoC4/Timer_1.c **** 
1290:.\Generated_Source\PSoC4/Timer_1.c **** /*******************************************************************************
1291:.\Generated_Source\PSoC4/Timer_1.c **** * Function Name: Timer_1_GetInterruptSourceMasked
1292:.\Generated_Source\PSoC4/Timer_1.c **** ********************************************************************************
1293:.\Generated_Source\PSoC4/Timer_1.c **** *
1294:.\Generated_Source\PSoC4/Timer_1.c **** * Summary:
1295:.\Generated_Source\PSoC4/Timer_1.c **** *  Gets the interrupt requests masked by the interrupt mask.
1296:.\Generated_Source\PSoC4/Timer_1.c **** *
1297:.\Generated_Source\PSoC4/Timer_1.c **** * Parameters:
1298:.\Generated_Source\PSoC4/Timer_1.c **** *   None
1299:.\Generated_Source\PSoC4/Timer_1.c **** *
1300:.\Generated_Source\PSoC4/Timer_1.c **** * Return:
1301:.\Generated_Source\PSoC4/Timer_1.c **** *  Masked interrupt source
1302:.\Generated_Source\PSoC4/Timer_1.c **** *   Values:
ARM GAS  C:\Users\gizmo\AppData\Local\Temp\cc1VMdzg.s 			page 53


1303:.\Generated_Source\PSoC4/Timer_1.c **** *     - Timer_1_INTR_MASK_TC       - Terminal count mask
1304:.\Generated_Source\PSoC4/Timer_1.c **** *     - Timer_1_INTR_MASK_CC_MATCH - Compare count / capture mask
1305:.\Generated_Source\PSoC4/Timer_1.c **** *
1306:.\Generated_Source\PSoC4/Timer_1.c **** *******************************************************************************/
1307:.\Generated_Source\PSoC4/Timer_1.c **** uint32 Timer_1_GetInterruptSourceMasked(void)
1308:.\Generated_Source\PSoC4/Timer_1.c **** {
 1418              		.loc 1 1308 0
 1419              		.cfi_startproc
1309:.\Generated_Source\PSoC4/Timer_1.c ****     return (Timer_1_INTERRUPT_MASKED_REG);
 1420              		.loc 1 1309 0
 1421 0000 014B     		ldr	r3, .L112
1310:.\Generated_Source\PSoC4/Timer_1.c **** }
 1422              		.loc 1 1310 0
 1423              		@ sp needed
1309:.\Generated_Source\PSoC4/Timer_1.c ****     return (Timer_1_INTERRUPT_MASKED_REG);
 1424              		.loc 1 1309 0
 1425 0002 1868     		ldr	r0, [r3]
 1426              		.loc 1 1310 0
 1427 0004 7047     		bx	lr
 1428              	.L113:
 1429 0006 C046     		.align	2
 1430              	.L112:
 1431 0008 3C010540 		.word	1074069820
 1432              		.cfi_endproc
 1433              	.LFE36:
 1434              		.size	Timer_1_GetInterruptSourceMasked, .-Timer_1_GetInterruptSourceMasked
 1435              		.section	.text.Timer_1_GetInterruptSource,"ax",%progbits
 1436              		.align	1
 1437              		.global	Timer_1_GetInterruptSource
 1438              		.code	16
 1439              		.thumb_func
 1440              		.type	Timer_1_GetInterruptSource, %function
 1441              	Timer_1_GetInterruptSource:
 1442              	.LFB37:
1311:.\Generated_Source\PSoC4/Timer_1.c **** 
1312:.\Generated_Source\PSoC4/Timer_1.c **** 
1313:.\Generated_Source\PSoC4/Timer_1.c **** /*******************************************************************************
1314:.\Generated_Source\PSoC4/Timer_1.c **** * Function Name: Timer_1_GetInterruptSource
1315:.\Generated_Source\PSoC4/Timer_1.c **** ********************************************************************************
1316:.\Generated_Source\PSoC4/Timer_1.c **** *
1317:.\Generated_Source\PSoC4/Timer_1.c **** * Summary:
1318:.\Generated_Source\PSoC4/Timer_1.c **** *  Gets the interrupt requests (without masking).
1319:.\Generated_Source\PSoC4/Timer_1.c **** *
1320:.\Generated_Source\PSoC4/Timer_1.c **** * Parameters:
1321:.\Generated_Source\PSoC4/Timer_1.c **** *  None
1322:.\Generated_Source\PSoC4/Timer_1.c **** *
1323:.\Generated_Source\PSoC4/Timer_1.c **** * Return:
1324:.\Generated_Source\PSoC4/Timer_1.c **** *  Interrupt request value
1325:.\Generated_Source\PSoC4/Timer_1.c **** *   Values:
1326:.\Generated_Source\PSoC4/Timer_1.c **** *     - Timer_1_INTR_MASK_TC       - Terminal count mask
1327:.\Generated_Source\PSoC4/Timer_1.c **** *     - Timer_1_INTR_MASK_CC_MATCH - Compare count / capture mask
1328:.\Generated_Source\PSoC4/Timer_1.c **** *
1329:.\Generated_Source\PSoC4/Timer_1.c **** *******************************************************************************/
1330:.\Generated_Source\PSoC4/Timer_1.c **** uint32 Timer_1_GetInterruptSource(void)
1331:.\Generated_Source\PSoC4/Timer_1.c **** {
 1443              		.loc 1 1331 0
 1444              		.cfi_startproc
ARM GAS  C:\Users\gizmo\AppData\Local\Temp\cc1VMdzg.s 			page 54


1332:.\Generated_Source\PSoC4/Timer_1.c ****     return (Timer_1_INTERRUPT_REQ_REG);
 1445              		.loc 1 1332 0
 1446 0000 014B     		ldr	r3, .L115
1333:.\Generated_Source\PSoC4/Timer_1.c **** }
 1447              		.loc 1 1333 0
 1448              		@ sp needed
1332:.\Generated_Source\PSoC4/Timer_1.c ****     return (Timer_1_INTERRUPT_REQ_REG);
 1449              		.loc 1 1332 0
 1450 0002 1868     		ldr	r0, [r3]
 1451              		.loc 1 1333 0
 1452 0004 7047     		bx	lr
 1453              	.L116:
 1454 0006 C046     		.align	2
 1455              	.L115:
 1456 0008 30010540 		.word	1074069808
 1457              		.cfi_endproc
 1458              	.LFE37:
 1459              		.size	Timer_1_GetInterruptSource, .-Timer_1_GetInterruptSource
 1460              		.section	.text.Timer_1_ClearInterrupt,"ax",%progbits
 1461              		.align	1
 1462              		.global	Timer_1_ClearInterrupt
 1463              		.code	16
 1464              		.thumb_func
 1465              		.type	Timer_1_ClearInterrupt, %function
 1466              	Timer_1_ClearInterrupt:
 1467              	.LFB38:
1334:.\Generated_Source\PSoC4/Timer_1.c **** 
1335:.\Generated_Source\PSoC4/Timer_1.c **** 
1336:.\Generated_Source\PSoC4/Timer_1.c **** /*******************************************************************************
1337:.\Generated_Source\PSoC4/Timer_1.c **** * Function Name: Timer_1_ClearInterrupt
1338:.\Generated_Source\PSoC4/Timer_1.c **** ********************************************************************************
1339:.\Generated_Source\PSoC4/Timer_1.c **** *
1340:.\Generated_Source\PSoC4/Timer_1.c **** * Summary:
1341:.\Generated_Source\PSoC4/Timer_1.c **** *  Clears the interrupt request.
1342:.\Generated_Source\PSoC4/Timer_1.c **** *
1343:.\Generated_Source\PSoC4/Timer_1.c **** * Parameters:
1344:.\Generated_Source\PSoC4/Timer_1.c **** *   interruptMask: Mask of interrupts to clear
1345:.\Generated_Source\PSoC4/Timer_1.c **** *   Values:
1346:.\Generated_Source\PSoC4/Timer_1.c **** *     - Timer_1_INTR_MASK_TC       - Terminal count mask
1347:.\Generated_Source\PSoC4/Timer_1.c **** *     - Timer_1_INTR_MASK_CC_MATCH - Compare count / capture mask
1348:.\Generated_Source\PSoC4/Timer_1.c **** *
1349:.\Generated_Source\PSoC4/Timer_1.c **** * Return:
1350:.\Generated_Source\PSoC4/Timer_1.c **** *  None
1351:.\Generated_Source\PSoC4/Timer_1.c **** *
1352:.\Generated_Source\PSoC4/Timer_1.c **** *******************************************************************************/
1353:.\Generated_Source\PSoC4/Timer_1.c **** void Timer_1_ClearInterrupt(uint32 interruptMask)
1354:.\Generated_Source\PSoC4/Timer_1.c **** {
 1468              		.loc 1 1354 0
 1469              		.cfi_startproc
 1470              	.LVL91:
1355:.\Generated_Source\PSoC4/Timer_1.c ****     Timer_1_INTERRUPT_REQ_REG = interruptMask;
 1471              		.loc 1 1355 0
 1472 0000 014B     		ldr	r3, .L118
1356:.\Generated_Source\PSoC4/Timer_1.c **** }
 1473              		.loc 1 1356 0
 1474              		@ sp needed
1355:.\Generated_Source\PSoC4/Timer_1.c ****     Timer_1_INTERRUPT_REQ_REG = interruptMask;
ARM GAS  C:\Users\gizmo\AppData\Local\Temp\cc1VMdzg.s 			page 55


 1475              		.loc 1 1355 0
 1476 0002 1860     		str	r0, [r3]
 1477              		.loc 1 1356 0
 1478 0004 7047     		bx	lr
 1479              	.L119:
 1480 0006 C046     		.align	2
 1481              	.L118:
 1482 0008 30010540 		.word	1074069808
 1483              		.cfi_endproc
 1484              	.LFE38:
 1485              		.size	Timer_1_ClearInterrupt, .-Timer_1_ClearInterrupt
 1486              		.section	.text.Timer_1_SetInterrupt,"ax",%progbits
 1487              		.align	1
 1488              		.global	Timer_1_SetInterrupt
 1489              		.code	16
 1490              		.thumb_func
 1491              		.type	Timer_1_SetInterrupt, %function
 1492              	Timer_1_SetInterrupt:
 1493              	.LFB39:
1357:.\Generated_Source\PSoC4/Timer_1.c **** 
1358:.\Generated_Source\PSoC4/Timer_1.c **** 
1359:.\Generated_Source\PSoC4/Timer_1.c **** /*******************************************************************************
1360:.\Generated_Source\PSoC4/Timer_1.c **** * Function Name: Timer_1_SetInterrupt
1361:.\Generated_Source\PSoC4/Timer_1.c **** ********************************************************************************
1362:.\Generated_Source\PSoC4/Timer_1.c **** *
1363:.\Generated_Source\PSoC4/Timer_1.c **** * Summary:
1364:.\Generated_Source\PSoC4/Timer_1.c **** *  Sets a software interrupt request.
1365:.\Generated_Source\PSoC4/Timer_1.c **** *
1366:.\Generated_Source\PSoC4/Timer_1.c **** * Parameters:
1367:.\Generated_Source\PSoC4/Timer_1.c **** *   interruptMask: Mask of interrupts to set
1368:.\Generated_Source\PSoC4/Timer_1.c **** *   Values:
1369:.\Generated_Source\PSoC4/Timer_1.c **** *     - Timer_1_INTR_MASK_TC       - Terminal count mask
1370:.\Generated_Source\PSoC4/Timer_1.c **** *     - Timer_1_INTR_MASK_CC_MATCH - Compare count / capture mask
1371:.\Generated_Source\PSoC4/Timer_1.c **** *
1372:.\Generated_Source\PSoC4/Timer_1.c **** * Return:
1373:.\Generated_Source\PSoC4/Timer_1.c **** *  None
1374:.\Generated_Source\PSoC4/Timer_1.c **** *
1375:.\Generated_Source\PSoC4/Timer_1.c **** *******************************************************************************/
1376:.\Generated_Source\PSoC4/Timer_1.c **** void Timer_1_SetInterrupt(uint32 interruptMask)
1377:.\Generated_Source\PSoC4/Timer_1.c **** {
 1494              		.loc 1 1377 0
 1495              		.cfi_startproc
 1496              	.LVL92:
1378:.\Generated_Source\PSoC4/Timer_1.c ****     Timer_1_INTERRUPT_SET_REG = interruptMask;
 1497              		.loc 1 1378 0
 1498 0000 014B     		ldr	r3, .L121
1379:.\Generated_Source\PSoC4/Timer_1.c **** }
 1499              		.loc 1 1379 0
 1500              		@ sp needed
1378:.\Generated_Source\PSoC4/Timer_1.c ****     Timer_1_INTERRUPT_SET_REG = interruptMask;
 1501              		.loc 1 1378 0
 1502 0002 1860     		str	r0, [r3]
 1503              		.loc 1 1379 0
 1504 0004 7047     		bx	lr
 1505              	.L122:
 1506 0006 C046     		.align	2
 1507              	.L121:
ARM GAS  C:\Users\gizmo\AppData\Local\Temp\cc1VMdzg.s 			page 56


 1508 0008 34010540 		.word	1074069812
 1509              		.cfi_endproc
 1510              	.LFE39:
 1511              		.size	Timer_1_SetInterrupt, .-Timer_1_SetInterrupt
 1512              		.global	Timer_1_initVar
 1513              		.bss
 1514              		.set	.LANCHOR0,. + 0
 1515              		.type	Timer_1_initVar, %object
 1516              		.size	Timer_1_initVar, 1
 1517              	Timer_1_initVar:
 1518 0000 00       		.space	1
 1519              		.text
 1520              	.Letext0:
 1521              		.file 2 ".\\Generated_Source\\PSoC4\\cytypes.h"
 1522              		.file 3 ".\\Generated_Source\\PSoC4\\CyLib.h"
 1523              		.section	.debug_info,"",%progbits
 1524              	.Ldebug_info0:
 1525 0000 2E090000 		.4byte	0x92e
 1526 0004 0400     		.2byte	0x4
 1527 0006 00000000 		.4byte	.Ldebug_abbrev0
 1528 000a 04       		.byte	0x4
 1529 000b 01       		.uleb128 0x1
 1530 000c 06000000 		.4byte	.LASF76
 1531 0010 01       		.byte	0x1
 1532 0011 DD000000 		.4byte	.LASF77
 1533 0015 97040000 		.4byte	.LASF78
 1534 0019 00000000 		.4byte	.Ldebug_ranges0+0
 1535 001d 00000000 		.4byte	0
 1536 0021 00000000 		.4byte	.Ldebug_line0
 1537 0025 02       		.uleb128 0x2
 1538 0026 01       		.byte	0x1
 1539 0027 06       		.byte	0x6
 1540 0028 4F010000 		.4byte	.LASF0
 1541 002c 02       		.uleb128 0x2
 1542 002d 01       		.byte	0x1
 1543 002e 08       		.byte	0x8
 1544 002f 65040000 		.4byte	.LASF1
 1545 0033 02       		.uleb128 0x2
 1546 0034 02       		.byte	0x2
 1547 0035 05       		.byte	0x5
 1548 0036 4E030000 		.4byte	.LASF2
 1549 003a 02       		.uleb128 0x2
 1550 003b 02       		.byte	0x2
 1551 003c 07       		.byte	0x7
 1552 003d D4020000 		.4byte	.LASF3
 1553 0041 02       		.uleb128 0x2
 1554 0042 04       		.byte	0x4
 1555 0043 05       		.byte	0x5
 1556 0044 86010000 		.4byte	.LASF4
 1557 0048 02       		.uleb128 0x2
 1558 0049 04       		.byte	0x4
 1559 004a 07       		.byte	0x7
 1560 004b 5B020000 		.4byte	.LASF5
 1561 004f 02       		.uleb128 0x2
 1562 0050 08       		.byte	0x8
 1563 0051 05       		.byte	0x5
 1564 0052 41010000 		.4byte	.LASF6
ARM GAS  C:\Users\gizmo\AppData\Local\Temp\cc1VMdzg.s 			page 57


 1565 0056 02       		.uleb128 0x2
 1566 0057 08       		.byte	0x8
 1567 0058 07       		.byte	0x7
 1568 0059 00010000 		.4byte	.LASF7
 1569 005d 03       		.uleb128 0x3
 1570 005e 04       		.byte	0x4
 1571 005f 05       		.byte	0x5
 1572 0060 696E7400 		.ascii	"int\000"
 1573 0064 02       		.uleb128 0x2
 1574 0065 04       		.byte	0x4
 1575 0066 07       		.byte	0x7
 1576 0067 32020000 		.4byte	.LASF8
 1577 006b 04       		.uleb128 0x4
 1578 006c 9A010000 		.4byte	.LASF9
 1579 0070 02       		.byte	0x2
 1580 0071 C2       		.byte	0xc2
 1581 0072 2C000000 		.4byte	0x2c
 1582 0076 04       		.uleb128 0x4
 1583 0077 EC010000 		.4byte	.LASF10
 1584 007b 02       		.byte	0x2
 1585 007c C4       		.byte	0xc4
 1586 007d 48000000 		.4byte	0x48
 1587 0081 02       		.uleb128 0x2
 1588 0082 04       		.byte	0x4
 1589 0083 04       		.byte	0x4
 1590 0084 17040000 		.4byte	.LASF11
 1591 0088 02       		.uleb128 0x2
 1592 0089 08       		.byte	0x8
 1593 008a 04       		.byte	0x4
 1594 008b A0010000 		.4byte	.LASF12
 1595 008f 02       		.uleb128 0x2
 1596 0090 01       		.byte	0x1
 1597 0091 08       		.byte	0x8
 1598 0092 6D050000 		.4byte	.LASF13
 1599 0096 05       		.uleb128 0x5
 1600 0097 6B030000 		.4byte	.LASF14
 1601 009b 02       		.byte	0x2
 1602 009c 6E01     		.2byte	0x16e
 1603 009e A2000000 		.4byte	0xa2
 1604 00a2 06       		.uleb128 0x6
 1605 00a3 76000000 		.4byte	0x76
 1606 00a7 02       		.uleb128 0x2
 1607 00a8 04       		.byte	0x4
 1608 00a9 07       		.byte	0x7
 1609 00aa 71030000 		.4byte	.LASF15
 1610 00ae 07       		.uleb128 0x7
 1611 00af 8B050000 		.4byte	.LASF16
 1612 00b3 01       		.byte	0x1
 1613 00b4 0405     		.2byte	0x504
 1614 00b6 01       		.byte	0x1
 1615 00b7 C8000000 		.4byte	0xc8
 1616 00bb 08       		.uleb128 0x8
 1617 00bc 1D050000 		.4byte	.LASF18
 1618 00c0 01       		.byte	0x1
 1619 00c1 0405     		.2byte	0x504
 1620 00c3 76000000 		.4byte	0x76
 1621 00c7 00       		.byte	0
ARM GAS  C:\Users\gizmo\AppData\Local\Temp\cc1VMdzg.s 			page 58


 1622 00c8 07       		.uleb128 0x7
 1623 00c9 72010000 		.4byte	.LASF17
 1624 00cd 01       		.byte	0x1
 1625 00ce AF02     		.2byte	0x2af
 1626 00d0 01       		.byte	0x1
 1627 00d1 E2000000 		.4byte	0xe2
 1628 00d5 08       		.uleb128 0x8
 1629 00d6 D6000000 		.4byte	.LASF19
 1630 00da 01       		.byte	0x1
 1631 00db AF02     		.2byte	0x2af
 1632 00dd 76000000 		.4byte	0x76
 1633 00e1 00       		.byte	0
 1634 00e2 07       		.uleb128 0x7
 1635 00e3 A7010000 		.4byte	.LASF20
 1636 00e7 01       		.byte	0x1
 1637 00e8 6102     		.2byte	0x261
 1638 00ea 01       		.byte	0x1
 1639 00eb FC000000 		.4byte	0xfc
 1640 00ef 08       		.uleb128 0x8
 1641 00f0 00000000 		.4byte	.LASF21
 1642 00f4 01       		.byte	0x1
 1643 00f5 6102     		.2byte	0x261
 1644 00f7 76000000 		.4byte	0x76
 1645 00fb 00       		.byte	0
 1646 00fc 09       		.uleb128 0x9
 1647 00fd 17010000 		.4byte	.LASF22
 1648 0101 01       		.byte	0x1
 1649 0102 26       		.byte	0x26
 1650 0103 00000000 		.4byte	.LFB0
 1651 0107 3C000000 		.4byte	.LFE0-.LFB0
 1652 010b 01       		.uleb128 0x1
 1653 010c 9C       		.byte	0x9c
 1654 010d 5D010000 		.4byte	0x15d
 1655 0111 0A       		.uleb128 0xa
 1656 0112 AE000000 		.4byte	0xae
 1657 0116 0E000000 		.4byte	.LBB8
 1658 011a 06000000 		.4byte	.LBE8-.LBB8
 1659 011e 01       		.byte	0x1
 1660 011f 40       		.byte	0x40
 1661 0120 2B010000 		.4byte	0x12b
 1662 0124 0B       		.uleb128 0xb
 1663 0125 BB000000 		.4byte	0xbb
 1664 0129 01       		.byte	0x1
 1665 012a 00       		.byte	0
 1666 012b 0A       		.uleb128 0xa
 1667 012c C8000000 		.4byte	0xc8
 1668 0130 14000000 		.4byte	.LBB10
 1669 0134 06000000 		.4byte	.LBE10-.LBB10
 1670 0138 01       		.byte	0x1
 1671 0139 43       		.byte	0x43
 1672 013a 46010000 		.4byte	0x146
 1673 013e 0C       		.uleb128 0xc
 1674 013f D5000000 		.4byte	0xd5
 1675 0143 FFFF     		.2byte	0xffff
 1676 0145 00       		.byte	0
 1677 0146 0D       		.uleb128 0xd
 1678 0147 E2000000 		.4byte	0xe2
ARM GAS  C:\Users\gizmo\AppData\Local\Temp\cc1VMdzg.s 			page 59


 1679 014b 1A000000 		.4byte	.LBB12
 1680 014f 06000000 		.4byte	.LBE12-.LBB12
 1681 0153 01       		.byte	0x1
 1682 0154 54       		.byte	0x54
 1683 0155 0B       		.uleb128 0xb
 1684 0156 EF000000 		.4byte	0xef
 1685 015a 00       		.byte	0
 1686 015b 00       		.byte	0
 1687 015c 00       		.byte	0
 1688 015d 09       		.uleb128 0x9
 1689 015e 9B020000 		.4byte	.LASF23
 1690 0162 01       		.byte	0x1
 1691 0163 FA       		.byte	0xfa
 1692 0164 00000000 		.4byte	.LFB3
 1693 0168 1C000000 		.4byte	.LFE3-.LFB3
 1694 016c 01       		.uleb128 0x1
 1695 016d 9C       		.byte	0x9c
 1696 016e 94010000 		.4byte	0x194
 1697 0172 0E       		.uleb128 0xe
 1698 0173 F5050000 		.4byte	.LASF25
 1699 0177 01       		.byte	0x1
 1700 0178 FC       		.byte	0xfc
 1701 0179 6B000000 		.4byte	0x6b
 1702 017d 00000000 		.4byte	.LLST0
 1703 0181 0F       		.uleb128 0xf
 1704 0182 06000000 		.4byte	.LVL3
 1705 0186 19090000 		.4byte	0x919
 1706 018a 0F       		.uleb128 0xf
 1707 018b 14000000 		.4byte	.LVL4
 1708 018f 24090000 		.4byte	0x924
 1709 0193 00       		.byte	0
 1710 0194 10       		.uleb128 0x10
 1711 0195 3E030000 		.4byte	.LASF24
 1712 0199 01       		.byte	0x1
 1713 019a 1F01     		.2byte	0x11f
 1714 019c 00000000 		.4byte	.LFB4
 1715 01a0 28000000 		.4byte	.LFE4-.LFB4
 1716 01a4 01       		.uleb128 0x1
 1717 01a5 9C       		.byte	0x9c
 1718 01a6 DD010000 		.4byte	0x1dd
 1719 01aa 11       		.uleb128 0x11
 1720 01ab 72050000 		.4byte	.LASF27
 1721 01af 01       		.byte	0x1
 1722 01b0 1F01     		.2byte	0x11f
 1723 01b2 76000000 		.4byte	0x76
 1724 01b6 13000000 		.4byte	.LLST1
 1725 01ba 12       		.uleb128 0x12
 1726 01bb F5050000 		.4byte	.LASF25
 1727 01bf 01       		.byte	0x1
 1728 01c0 2101     		.2byte	0x121
 1729 01c2 6B000000 		.4byte	0x6b
 1730 01c6 3F000000 		.4byte	.LLST2
 1731 01ca 0F       		.uleb128 0xf
 1732 01cb 08000000 		.4byte	.LVL6
 1733 01cf 19090000 		.4byte	0x919
 1734 01d3 0F       		.uleb128 0xf
 1735 01d4 1C000000 		.4byte	.LVL7
ARM GAS  C:\Users\gizmo\AppData\Local\Temp\cc1VMdzg.s 			page 60


 1736 01d8 24090000 		.4byte	0x924
 1737 01dc 00       		.byte	0
 1738 01dd 10       		.uleb128 0x10
 1739 01de 91030000 		.4byte	.LASF26
 1740 01e2 01       		.byte	0x1
 1741 01e3 4001     		.2byte	0x140
 1742 01e5 00000000 		.4byte	.LFB5
 1743 01e9 28000000 		.4byte	.LFE5-.LFB5
 1744 01ed 01       		.uleb128 0x1
 1745 01ee 9C       		.byte	0x9c
 1746 01ef 26020000 		.4byte	0x226
 1747 01f3 11       		.uleb128 0x11
 1748 01f4 24010000 		.4byte	.LASF28
 1749 01f8 01       		.byte	0x1
 1750 01f9 4001     		.2byte	0x140
 1751 01fb 76000000 		.4byte	0x76
 1752 01ff 52000000 		.4byte	.LLST3
 1753 0203 12       		.uleb128 0x12
 1754 0204 F5050000 		.4byte	.LASF25
 1755 0208 01       		.byte	0x1
 1756 0209 4201     		.2byte	0x142
 1757 020b 6B000000 		.4byte	0x6b
 1758 020f 7E000000 		.4byte	.LLST4
 1759 0213 0F       		.uleb128 0xf
 1760 0214 08000000 		.4byte	.LVL10
 1761 0218 19090000 		.4byte	0x919
 1762 021c 0F       		.uleb128 0xf
 1763 021d 1C000000 		.4byte	.LVL11
 1764 0221 24090000 		.4byte	0x924
 1765 0225 00       		.byte	0
 1766 0226 10       		.uleb128 0x10
 1767 0227 D7030000 		.4byte	.LASF29
 1768 022b 01       		.byte	0x1
 1769 022c 6501     		.2byte	0x165
 1770 022e 00000000 		.4byte	.LFB6
 1771 0232 28000000 		.4byte	.LFE6-.LFB6
 1772 0236 01       		.uleb128 0x1
 1773 0237 9C       		.byte	0x9c
 1774 0238 6F020000 		.4byte	0x26f
 1775 023c 11       		.uleb128 0x11
 1776 023d 1D040000 		.4byte	.LASF30
 1777 0241 01       		.byte	0x1
 1778 0242 6501     		.2byte	0x165
 1779 0244 76000000 		.4byte	0x76
 1780 0248 91000000 		.4byte	.LLST5
 1781 024c 12       		.uleb128 0x12
 1782 024d F5050000 		.4byte	.LASF25
 1783 0251 01       		.byte	0x1
 1784 0252 6701     		.2byte	0x167
 1785 0254 6B000000 		.4byte	0x6b
 1786 0258 BD000000 		.4byte	.LLST6
 1787 025c 0F       		.uleb128 0xf
 1788 025d 08000000 		.4byte	.LVL14
 1789 0261 19090000 		.4byte	0x919
 1790 0265 0F       		.uleb128 0xf
 1791 0266 1C000000 		.4byte	.LVL15
 1792 026a 24090000 		.4byte	0x924
ARM GAS  C:\Users\gizmo\AppData\Local\Temp\cc1VMdzg.s 			page 61


 1793 026e 00       		.byte	0
 1794 026f 10       		.uleb128 0x10
 1795 0270 1D030000 		.4byte	.LASF31
 1796 0274 01       		.byte	0x1
 1797 0275 8501     		.2byte	0x185
 1798 0277 00000000 		.4byte	.LFB7
 1799 027b 2C000000 		.4byte	.LFE7-.LFB7
 1800 027f 01       		.uleb128 0x1
 1801 0280 9C       		.byte	0x9c
 1802 0281 B8020000 		.4byte	0x2b8
 1803 0285 11       		.uleb128 0x11
 1804 0286 30030000 		.4byte	.LASF32
 1805 028a 01       		.byte	0x1
 1806 028b 8501     		.2byte	0x185
 1807 028d 76000000 		.4byte	0x76
 1808 0291 D0000000 		.4byte	.LLST7
 1809 0295 12       		.uleb128 0x12
 1810 0296 F5050000 		.4byte	.LASF25
 1811 029a 01       		.byte	0x1
 1812 029b 8701     		.2byte	0x187
 1813 029d 6B000000 		.4byte	0x6b
 1814 02a1 FC000000 		.4byte	.LLST8
 1815 02a5 0F       		.uleb128 0xf
 1816 02a6 08000000 		.4byte	.LVL18
 1817 02aa 19090000 		.4byte	0x919
 1818 02ae 0F       		.uleb128 0xf
 1819 02af 22000000 		.4byte	.LVL19
 1820 02b3 24090000 		.4byte	0x924
 1821 02b7 00       		.byte	0
 1822 02b8 10       		.uleb128 0x10
 1823 02b9 CB050000 		.4byte	.LASF33
 1824 02bd 01       		.byte	0x1
 1825 02be BB01     		.2byte	0x1bb
 1826 02c0 00000000 		.4byte	.LFB8
 1827 02c4 10000000 		.4byte	.LFE8-.LFB8
 1828 02c8 01       		.uleb128 0x1
 1829 02c9 9C       		.byte	0x9c
 1830 02ca DF020000 		.4byte	0x2df
 1831 02ce 11       		.uleb128 0x11
 1832 02cf 6D020000 		.4byte	.LASF34
 1833 02d3 01       		.byte	0x1
 1834 02d4 BB01     		.2byte	0x1bb
 1835 02d6 76000000 		.4byte	0x76
 1836 02da 0F010000 		.4byte	.LLST9
 1837 02de 00       		.byte	0
 1838 02df 10       		.uleb128 0x10
 1839 02e0 42050000 		.4byte	.LASF35
 1840 02e4 01       		.byte	0x1
 1841 02e5 DF01     		.2byte	0x1df
 1842 02e7 00000000 		.4byte	.LFB9
 1843 02eb 28000000 		.4byte	.LFE9-.LFB9
 1844 02ef 01       		.uleb128 0x1
 1845 02f0 9C       		.byte	0x9c
 1846 02f1 28030000 		.4byte	0x328
 1847 02f5 11       		.uleb128 0x11
 1848 02f6 1B060000 		.4byte	.LASF36
 1849 02fa 01       		.byte	0x1
ARM GAS  C:\Users\gizmo\AppData\Local\Temp\cc1VMdzg.s 			page 62


 1850 02fb DF01     		.2byte	0x1df
 1851 02fd 76000000 		.4byte	0x76
 1852 0301 30010000 		.4byte	.LLST10
 1853 0305 12       		.uleb128 0x12
 1854 0306 F5050000 		.4byte	.LASF25
 1855 030a 01       		.byte	0x1
 1856 030b E101     		.2byte	0x1e1
 1857 030d 6B000000 		.4byte	0x6b
 1858 0311 5C010000 		.4byte	.LLST11
 1859 0315 0F       		.uleb128 0xf
 1860 0316 08000000 		.4byte	.LVL24
 1861 031a 19090000 		.4byte	0x919
 1862 031e 0F       		.uleb128 0xf
 1863 031f 22000000 		.4byte	.LVL25
 1864 0323 24090000 		.4byte	0x924
 1865 0327 00       		.byte	0
 1866 0328 10       		.uleb128 0x10
 1867 0329 BC010000 		.4byte	.LASF37
 1868 032d 01       		.byte	0x1
 1869 032e 0102     		.2byte	0x201
 1870 0330 00000000 		.4byte	.LFB10
 1871 0334 28000000 		.4byte	.LFE10-.LFB10
 1872 0338 01       		.uleb128 0x1
 1873 0339 9C       		.byte	0x9c
 1874 033a 71030000 		.4byte	0x371
 1875 033e 11       		.uleb128 0x11
 1876 033f 73040000 		.4byte	.LASF38
 1877 0343 01       		.byte	0x1
 1878 0344 0102     		.2byte	0x201
 1879 0346 76000000 		.4byte	0x76
 1880 034a 6F010000 		.4byte	.LLST12
 1881 034e 12       		.uleb128 0x12
 1882 034f F5050000 		.4byte	.LASF25
 1883 0353 01       		.byte	0x1
 1884 0354 0302     		.2byte	0x203
 1885 0356 6B000000 		.4byte	0x6b
 1886 035a 9B010000 		.4byte	.LLST13
 1887 035e 0F       		.uleb128 0xf
 1888 035f 08000000 		.4byte	.LVL28
 1889 0363 19090000 		.4byte	0x919
 1890 0367 0F       		.uleb128 0xf
 1891 0368 22000000 		.4byte	.LVL29
 1892 036c 24090000 		.4byte	0x924
 1893 0370 00       		.byte	0
 1894 0371 10       		.uleb128 0x10
 1895 0372 2B050000 		.4byte	.LASF39
 1896 0376 01       		.byte	0x1
 1897 0377 2202     		.2byte	0x222
 1898 0379 00000000 		.4byte	.LFB11
 1899 037d 2C000000 		.4byte	.LFE11-.LFB11
 1900 0381 01       		.uleb128 0x1
 1901 0382 9C       		.byte	0x9c
 1902 0383 BA030000 		.4byte	0x3ba
 1903 0387 11       		.uleb128 0x11
 1904 0388 19020000 		.4byte	.LASF40
 1905 038c 01       		.byte	0x1
 1906 038d 2202     		.2byte	0x222
ARM GAS  C:\Users\gizmo\AppData\Local\Temp\cc1VMdzg.s 			page 63


 1907 038f 76000000 		.4byte	0x76
 1908 0393 AE010000 		.4byte	.LLST14
 1909 0397 12       		.uleb128 0x12
 1910 0398 F5050000 		.4byte	.LASF25
 1911 039c 01       		.byte	0x1
 1912 039d 2402     		.2byte	0x224
 1913 039f 6B000000 		.4byte	0x6b
 1914 03a3 DA010000 		.4byte	.LLST15
 1915 03a7 0F       		.uleb128 0xf
 1916 03a8 08000000 		.4byte	.LVL32
 1917 03ac 19090000 		.4byte	0x919
 1918 03b0 0F       		.uleb128 0xf
 1919 03b1 20000000 		.4byte	.LVL34
 1920 03b5 24090000 		.4byte	0x924
 1921 03b9 00       		.byte	0
 1922 03ba 10       		.uleb128 0x10
 1923 03bb A8020000 		.4byte	.LASF41
 1924 03bf 01       		.byte	0x1
 1925 03c0 4302     		.2byte	0x243
 1926 03c2 00000000 		.4byte	.LFB12
 1927 03c6 28000000 		.4byte	.LFE12-.LFB12
 1928 03ca 01       		.uleb128 0x1
 1929 03cb 9C       		.byte	0x9c
 1930 03cc 03040000 		.4byte	0x403
 1931 03d0 11       		.uleb128 0x11
 1932 03d1 14020000 		.4byte	.LASF42
 1933 03d5 01       		.byte	0x1
 1934 03d6 4302     		.2byte	0x243
 1935 03d8 76000000 		.4byte	0x76
 1936 03dc ED010000 		.4byte	.LLST16
 1937 03e0 12       		.uleb128 0x12
 1938 03e1 F5050000 		.4byte	.LASF25
 1939 03e5 01       		.byte	0x1
 1940 03e6 4502     		.2byte	0x245
 1941 03e8 6B000000 		.4byte	0x6b
 1942 03ec 19020000 		.4byte	.LLST17
 1943 03f0 0F       		.uleb128 0xf
 1944 03f1 08000000 		.4byte	.LVL36
 1945 03f5 19090000 		.4byte	0x919
 1946 03f9 0F       		.uleb128 0xf
 1947 03fa 1C000000 		.4byte	.LVL37
 1948 03fe 24090000 		.4byte	0x924
 1949 0402 00       		.byte	0
 1950 0403 13       		.uleb128 0x13
 1951 0404 E2000000 		.4byte	0xe2
 1952 0408 00000000 		.4byte	.LFB13
 1953 040c 0C000000 		.4byte	.LFE13-.LFB13
 1954 0410 01       		.uleb128 0x1
 1955 0411 9C       		.byte	0x9c
 1956 0412 20040000 		.4byte	0x420
 1957 0416 14       		.uleb128 0x14
 1958 0417 EF000000 		.4byte	0xef
 1959 041b 2C020000 		.4byte	.LLST18
 1960 041f 00       		.byte	0
 1961 0420 15       		.uleb128 0x15
 1962 0421 EC030000 		.4byte	.LASF45
 1963 0425 01       		.byte	0x1
ARM GAS  C:\Users\gizmo\AppData\Local\Temp\cc1VMdzg.s 			page 64


 1964 0426 7502     		.2byte	0x275
 1965 0428 76000000 		.4byte	0x76
 1966 042c 00000000 		.4byte	.LFB14
 1967 0430 0C000000 		.4byte	.LFE14-.LFB14
 1968 0434 01       		.uleb128 0x1
 1969 0435 9C       		.byte	0x9c
 1970 0436 10       		.uleb128 0x10
 1971 0437 BD020000 		.4byte	.LASF43
 1972 043b 01       		.byte	0x1
 1973 043c 9202     		.2byte	0x292
 1974 043e 00000000 		.4byte	.LFB15
 1975 0442 28000000 		.4byte	.LFE15-.LFB15
 1976 0446 01       		.uleb128 0x1
 1977 0447 9C       		.byte	0x9c
 1978 0448 7F040000 		.4byte	0x47f
 1979 044c 11       		.uleb128 0x11
 1980 044d A4050000 		.4byte	.LASF44
 1981 0451 01       		.byte	0x1
 1982 0452 9202     		.2byte	0x292
 1983 0454 76000000 		.4byte	0x76
 1984 0458 4D020000 		.4byte	.LLST19
 1985 045c 12       		.uleb128 0x12
 1986 045d F5050000 		.4byte	.LASF25
 1987 0461 01       		.byte	0x1
 1988 0462 9402     		.2byte	0x294
 1989 0464 6B000000 		.4byte	0x6b
 1990 0468 79020000 		.4byte	.LLST20
 1991 046c 0F       		.uleb128 0xf
 1992 046d 08000000 		.4byte	.LVL42
 1993 0471 19090000 		.4byte	0x919
 1994 0475 0F       		.uleb128 0xf
 1995 0476 1C000000 		.4byte	.LVL43
 1996 047a 24090000 		.4byte	0x924
 1997 047e 00       		.byte	0
 1998 047f 13       		.uleb128 0x13
 1999 0480 C8000000 		.4byte	0xc8
 2000 0484 00000000 		.4byte	.LFB16
 2001 0488 0C000000 		.4byte	.LFE16-.LFB16
 2002 048c 01       		.uleb128 0x1
 2003 048d 9C       		.byte	0x9c
 2004 048e 9C040000 		.4byte	0x49c
 2005 0492 14       		.uleb128 0x14
 2006 0493 D5000000 		.4byte	0xd5
 2007 0497 8C020000 		.4byte	.LLST21
 2008 049b 00       		.byte	0
 2009 049c 15       		.uleb128 0x15
 2010 049d 84040000 		.4byte	.LASF46
 2011 04a1 01       		.byte	0x1
 2012 04a2 C302     		.2byte	0x2c3
 2013 04a4 76000000 		.4byte	0x76
 2014 04a8 00000000 		.4byte	.LFB17
 2015 04ac 0C000000 		.4byte	.LFE17-.LFB17
 2016 04b0 01       		.uleb128 0x1
 2017 04b1 9C       		.byte	0x9c
 2018 04b2 10       		.uleb128 0x10
 2019 04b3 BF000000 		.4byte	.LASF47
 2020 04b7 01       		.byte	0x1
ARM GAS  C:\Users\gizmo\AppData\Local\Temp\cc1VMdzg.s 			page 65


 2021 04b8 DD02     		.2byte	0x2dd
 2022 04ba 00000000 		.4byte	.LFB18
 2023 04be 24000000 		.4byte	.LFE18-.LFB18
 2024 04c2 01       		.uleb128 0x1
 2025 04c3 9C       		.byte	0x9c
 2026 04c4 FB040000 		.4byte	0x4fb
 2027 04c8 11       		.uleb128 0x11
 2028 04c9 2A060000 		.4byte	.LASF48
 2029 04cd 01       		.byte	0x1
 2030 04ce DD02     		.2byte	0x2dd
 2031 04d0 76000000 		.4byte	0x76
 2032 04d4 AD020000 		.4byte	.LLST22
 2033 04d8 12       		.uleb128 0x12
 2034 04d9 F5050000 		.4byte	.LASF25
 2035 04dd 01       		.byte	0x1
 2036 04de DF02     		.2byte	0x2df
 2037 04e0 6B000000 		.4byte	0x6b
 2038 04e4 D9020000 		.4byte	.LLST23
 2039 04e8 0F       		.uleb128 0xf
 2040 04e9 08000000 		.4byte	.LVL48
 2041 04ed 19090000 		.4byte	0x919
 2042 04f1 0F       		.uleb128 0xf
 2043 04f2 1E000000 		.4byte	.LVL49
 2044 04f6 24090000 		.4byte	0x924
 2045 04fa 00       		.byte	0
 2046 04fb 10       		.uleb128 0x10
 2047 04fc 5B010000 		.4byte	.LASF49
 2048 0500 01       		.byte	0x1
 2049 0501 F802     		.2byte	0x2f8
 2050 0503 00000000 		.4byte	.LFB19
 2051 0507 0C000000 		.4byte	.LFE19-.LFB19
 2052 050b 01       		.uleb128 0x1
 2053 050c 9C       		.byte	0x9c
 2054 050d 22050000 		.4byte	0x522
 2055 0511 11       		.uleb128 0x11
 2056 0512 35060000 		.4byte	.LASF50
 2057 0516 01       		.byte	0x1
 2058 0517 F802     		.2byte	0x2f8
 2059 0519 76000000 		.4byte	0x76
 2060 051d EC020000 		.4byte	.LLST24
 2061 0521 00       		.byte	0
 2062 0522 15       		.uleb128 0x15
 2063 0523 2B010000 		.4byte	.LASF51
 2064 0527 01       		.byte	0x1
 2065 0528 0C03     		.2byte	0x30c
 2066 052a 76000000 		.4byte	0x76
 2067 052e 00000000 		.4byte	.LFB20
 2068 0532 0C000000 		.4byte	.LFE20-.LFB20
 2069 0536 01       		.uleb128 0x1
 2070 0537 9C       		.byte	0x9c
 2071 0538 10       		.uleb128 0x10
 2072 0539 B9030000 		.4byte	.LASF52
 2073 053d 01       		.byte	0x1
 2074 053e 2603     		.2byte	0x326
 2075 0540 00000000 		.4byte	.LFB21
 2076 0544 28000000 		.4byte	.LFE21-.LFB21
 2077 0548 01       		.uleb128 0x1
ARM GAS  C:\Users\gizmo\AppData\Local\Temp\cc1VMdzg.s 			page 66


 2078 0549 9C       		.byte	0x9c
 2079 054a 81050000 		.4byte	0x581
 2080 054e 11       		.uleb128 0x11
 2081 054f 2A060000 		.4byte	.LASF48
 2082 0553 01       		.byte	0x1
 2083 0554 2603     		.2byte	0x326
 2084 0556 76000000 		.4byte	0x76
 2085 055a 0D030000 		.4byte	.LLST25
 2086 055e 12       		.uleb128 0x12
 2087 055f F5050000 		.4byte	.LASF25
 2088 0563 01       		.byte	0x1
 2089 0564 2803     		.2byte	0x328
 2090 0566 6B000000 		.4byte	0x6b
 2091 056a 39030000 		.4byte	.LLST26
 2092 056e 0F       		.uleb128 0xf
 2093 056f 08000000 		.4byte	.LVL54
 2094 0573 19090000 		.4byte	0x919
 2095 0577 0F       		.uleb128 0xf
 2096 0578 22000000 		.4byte	.LVL55
 2097 057c 24090000 		.4byte	0x924
 2098 0580 00       		.byte	0
 2099 0581 10       		.uleb128 0x10
 2100 0582 FF010000 		.4byte	.LASF53
 2101 0586 01       		.byte	0x1
 2102 0587 4303     		.2byte	0x343
 2103 0589 00000000 		.4byte	.LFB22
 2104 058d 0C000000 		.4byte	.LFE22-.LFB22
 2105 0591 01       		.uleb128 0x1
 2106 0592 9C       		.byte	0x9c
 2107 0593 A8050000 		.4byte	0x5a8
 2108 0597 11       		.uleb128 0x11
 2109 0598 CF030000 		.4byte	.LASF54
 2110 059c 01       		.byte	0x1
 2111 059d 4303     		.2byte	0x343
 2112 059f 76000000 		.4byte	0x76
 2113 05a3 4C030000 		.4byte	.LLST27
 2114 05a7 00       		.byte	0
 2115 05a8 15       		.uleb128 0x15
 2116 05a9 77050000 		.4byte	.LASF55
 2117 05ad 01       		.byte	0x1
 2118 05ae 6E03     		.2byte	0x36e
 2119 05b0 76000000 		.4byte	0x76
 2120 05b4 00000000 		.4byte	.LFB23
 2121 05b8 0C000000 		.4byte	.LFE23-.LFB23
 2122 05bc 01       		.uleb128 0x1
 2123 05bd 9C       		.byte	0x9c
 2124 05be 10       		.uleb128 0x10
 2125 05bf 27040000 		.4byte	.LASF56
 2126 05c3 01       		.byte	0x1
 2127 05c4 9C03     		.2byte	0x39c
 2128 05c6 00000000 		.4byte	.LFB24
 2129 05ca 0C000000 		.4byte	.LFE24-.LFB24
 2130 05ce 01       		.uleb128 0x1
 2131 05cf 9C       		.byte	0x9c
 2132 05d0 E5050000 		.4byte	0x5e5
 2133 05d4 11       		.uleb128 0x11
 2134 05d5 8F010000 		.4byte	.LASF57
ARM GAS  C:\Users\gizmo\AppData\Local\Temp\cc1VMdzg.s 			page 67


 2135 05d9 01       		.byte	0x1
 2136 05da 9C03     		.2byte	0x39c
 2137 05dc 76000000 		.4byte	0x76
 2138 05e0 6D030000 		.4byte	.LLST28
 2139 05e4 00       		.byte	0
 2140 05e5 15       		.uleb128 0x15
 2141 05e6 4E040000 		.4byte	.LASF58
 2142 05ea 01       		.byte	0x1
 2143 05eb C503     		.2byte	0x3c5
 2144 05ed 76000000 		.4byte	0x76
 2145 05f1 00000000 		.4byte	.LFB25
 2146 05f5 0C000000 		.4byte	.LFE25-.LFB25
 2147 05f9 01       		.uleb128 0x1
 2148 05fa 9C       		.byte	0x9c
 2149 05fb 15       		.uleb128 0x15
 2150 05fc 3F020000 		.4byte	.LASF59
 2151 0600 01       		.byte	0x1
 2152 0601 F303     		.2byte	0x3f3
 2153 0603 76000000 		.4byte	0x76
 2154 0607 00000000 		.4byte	.LFB26
 2155 060b 0C000000 		.4byte	.LFE26-.LFB26
 2156 060f 01       		.uleb128 0x1
 2157 0610 9C       		.byte	0x9c
 2158 0611 15       		.uleb128 0x15
 2159 0612 D5010000 		.4byte	.LASF60
 2160 0616 01       		.byte	0x1
 2161 0617 0804     		.2byte	0x408
 2162 0619 76000000 		.4byte	0x76
 2163 061d 00000000 		.4byte	.LFB27
 2164 0621 0C000000 		.4byte	.LFE27-.LFB27
 2165 0625 01       		.uleb128 0x1
 2166 0626 9C       		.byte	0x9c
 2167 0627 10       		.uleb128 0x10
 2168 0628 7A030000 		.4byte	.LASF61
 2169 062c 01       		.byte	0x1
 2170 062d 2304     		.2byte	0x423
 2171 062f 00000000 		.4byte	.LFB28
 2172 0633 24000000 		.4byte	.LFE28-.LFB28
 2173 0637 01       		.uleb128 0x1
 2174 0638 9C       		.byte	0x9c
 2175 0639 70060000 		.4byte	0x670
 2176 063d 11       		.uleb128 0x11
 2177 063e F3010000 		.4byte	.LASF62
 2178 0642 01       		.byte	0x1
 2179 0643 2304     		.2byte	0x423
 2180 0645 76000000 		.4byte	0x76
 2181 0649 8E030000 		.4byte	.LLST29
 2182 064d 12       		.uleb128 0x12
 2183 064e F5050000 		.4byte	.LASF25
 2184 0652 01       		.byte	0x1
 2185 0653 2504     		.2byte	0x425
 2186 0655 6B000000 		.4byte	0x6b
 2187 0659 BA030000 		.4byte	.LLST30
 2188 065d 0F       		.uleb128 0xf
 2189 065e 08000000 		.4byte	.LVL62
 2190 0662 19090000 		.4byte	0x919
 2191 0666 0F       		.uleb128 0xf
ARM GAS  C:\Users\gizmo\AppData\Local\Temp\cc1VMdzg.s 			page 68


 2192 0667 1C000000 		.4byte	.LVL63
 2193 066b 24090000 		.4byte	0x924
 2194 066f 00       		.byte	0
 2195 0670 10       		.uleb128 0x10
 2196 0671 A3030000 		.4byte	.LASF63
 2197 0675 01       		.byte	0x1
 2198 0676 4404     		.2byte	0x444
 2199 0678 00000000 		.4byte	.LFB29
 2200 067c 24000000 		.4byte	.LFE29-.LFB29
 2201 0680 01       		.uleb128 0x1
 2202 0681 9C       		.byte	0x9c
 2203 0682 B9060000 		.4byte	0x6b9
 2204 0686 11       		.uleb128 0x11
 2205 0687 F3010000 		.4byte	.LASF62
 2206 068b 01       		.byte	0x1
 2207 068c 4404     		.2byte	0x444
 2208 068e 76000000 		.4byte	0x76
 2209 0692 CD030000 		.4byte	.LLST31
 2210 0696 12       		.uleb128 0x12
 2211 0697 F5050000 		.4byte	.LASF25
 2212 069b 01       		.byte	0x1
 2213 069c 4604     		.2byte	0x446
 2214 069e 6B000000 		.4byte	0x6b
 2215 06a2 F9030000 		.4byte	.LLST32
 2216 06a6 0F       		.uleb128 0xf
 2217 06a7 08000000 		.4byte	.LVL66
 2218 06ab 19090000 		.4byte	0x919
 2219 06af 0F       		.uleb128 0xf
 2220 06b0 1E000000 		.4byte	.LVL67
 2221 06b4 24090000 		.4byte	0x924
 2222 06b8 00       		.byte	0
 2223 06b9 10       		.uleb128 0x10
 2224 06ba E7020000 		.4byte	.LASF64
 2225 06be 01       		.byte	0x1
 2226 06bf 6504     		.2byte	0x465
 2227 06c1 00000000 		.4byte	.LFB30
 2228 06c5 28000000 		.4byte	.LFE30-.LFB30
 2229 06c9 01       		.uleb128 0x1
 2230 06ca 9C       		.byte	0x9c
 2231 06cb 02070000 		.4byte	0x702
 2232 06cf 11       		.uleb128 0x11
 2233 06d0 F3010000 		.4byte	.LASF62
 2234 06d4 01       		.byte	0x1
 2235 06d5 6504     		.2byte	0x465
 2236 06d7 76000000 		.4byte	0x76
 2237 06db 0C040000 		.4byte	.LLST33
 2238 06df 12       		.uleb128 0x12
 2239 06e0 F5050000 		.4byte	.LASF25
 2240 06e4 01       		.byte	0x1
 2241 06e5 6704     		.2byte	0x467
 2242 06e7 6B000000 		.4byte	0x6b
 2243 06eb 38040000 		.4byte	.LLST34
 2244 06ef 0F       		.uleb128 0xf
 2245 06f0 08000000 		.4byte	.LVL70
 2246 06f4 19090000 		.4byte	0x919
 2247 06f8 0F       		.uleb128 0xf
 2248 06f9 1E000000 		.4byte	.LVL71
ARM GAS  C:\Users\gizmo\AppData\Local\Temp\cc1VMdzg.s 			page 69


 2249 06fd 24090000 		.4byte	0x924
 2250 0701 00       		.byte	0
 2251 0702 10       		.uleb128 0x10
 2252 0703 59050000 		.4byte	.LASF65
 2253 0707 01       		.byte	0x1
 2254 0708 8504     		.2byte	0x485
 2255 070a 00000000 		.4byte	.LFB31
 2256 070e 24000000 		.4byte	.LFE31-.LFB31
 2257 0712 01       		.uleb128 0x1
 2258 0713 9C       		.byte	0x9c
 2259 0714 4B070000 		.4byte	0x74b
 2260 0718 11       		.uleb128 0x11
 2261 0719 F3010000 		.4byte	.LASF62
 2262 071d 01       		.byte	0x1
 2263 071e 8504     		.2byte	0x485
 2264 0720 76000000 		.4byte	0x76
 2265 0724 4B040000 		.4byte	.LLST35
 2266 0728 12       		.uleb128 0x12
 2267 0729 F5050000 		.4byte	.LASF25
 2268 072d 01       		.byte	0x1
 2269 072e 8704     		.2byte	0x487
 2270 0730 6B000000 		.4byte	0x6b
 2271 0734 77040000 		.4byte	.LLST36
 2272 0738 0F       		.uleb128 0xf
 2273 0739 08000000 		.4byte	.LVL74
 2274 073d 19090000 		.4byte	0x919
 2275 0741 0F       		.uleb128 0xf
 2276 0742 1E000000 		.4byte	.LVL75
 2277 0746 24090000 		.4byte	0x924
 2278 074a 00       		.byte	0
 2279 074b 10       		.uleb128 0x10
 2280 074c AA000000 		.4byte	.LASF66
 2281 0750 01       		.byte	0x1
 2282 0751 A604     		.2byte	0x4a6
 2283 0753 00000000 		.4byte	.LFB32
 2284 0757 24000000 		.4byte	.LFE32-.LFB32
 2285 075b 01       		.uleb128 0x1
 2286 075c 9C       		.byte	0x9c
 2287 075d 94070000 		.4byte	0x794
 2288 0761 11       		.uleb128 0x11
 2289 0762 F3010000 		.4byte	.LASF62
 2290 0766 01       		.byte	0x1
 2291 0767 A604     		.2byte	0x4a6
 2292 0769 76000000 		.4byte	0x76
 2293 076d 8A040000 		.4byte	.LLST37
 2294 0771 12       		.uleb128 0x12
 2295 0772 F5050000 		.4byte	.LASF25
 2296 0776 01       		.byte	0x1
 2297 0777 A804     		.2byte	0x4a8
 2298 0779 6B000000 		.4byte	0x6b
 2299 077d B6040000 		.4byte	.LLST38
 2300 0781 0F       		.uleb128 0xf
 2301 0782 08000000 		.4byte	.LVL78
 2302 0786 19090000 		.4byte	0x919
 2303 078a 0F       		.uleb128 0xf
 2304 078b 1E000000 		.4byte	.LVL79
 2305 078f 24090000 		.4byte	0x924
ARM GAS  C:\Users\gizmo\AppData\Local\Temp\cc1VMdzg.s 			page 70


 2306 0793 00       		.byte	0
 2307 0794 10       		.uleb128 0x10
 2308 0795 DE050000 		.4byte	.LASF67
 2309 0799 01       		.byte	0x1
 2310 079a CE04     		.2byte	0x4ce
 2311 079c 00000000 		.4byte	.LFB33
 2312 07a0 1C000000 		.4byte	.LFE33-.LFB33
 2313 07a4 01       		.uleb128 0x1
 2314 07a5 9C       		.byte	0x9c
 2315 07a6 ED070000 		.4byte	0x7ed
 2316 07aa 11       		.uleb128 0x11
 2317 07ab 14020000 		.4byte	.LASF42
 2318 07af 01       		.byte	0x1
 2319 07b0 CE04     		.2byte	0x4ce
 2320 07b2 76000000 		.4byte	0x76
 2321 07b6 C9040000 		.4byte	.LLST39
 2322 07ba 11       		.uleb128 0x11
 2323 07bb 53020000 		.4byte	.LASF68
 2324 07bf 01       		.byte	0x1
 2325 07c0 CE04     		.2byte	0x4ce
 2326 07c2 76000000 		.4byte	0x76
 2327 07c6 EA040000 		.4byte	.LLST40
 2328 07ca 12       		.uleb128 0x12
 2329 07cb F5050000 		.4byte	.LASF25
 2330 07cf 01       		.byte	0x1
 2331 07d0 D004     		.2byte	0x4d0
 2332 07d2 6B000000 		.4byte	0x6b
 2333 07d6 16050000 		.4byte	.LLST41
 2334 07da 0F       		.uleb128 0xf
 2335 07db 0C000000 		.4byte	.LVL82
 2336 07df 19090000 		.4byte	0x919
 2337 07e3 0F       		.uleb128 0xf
 2338 07e4 14000000 		.4byte	.LVL83
 2339 07e8 24090000 		.4byte	0x924
 2340 07ec 00       		.byte	0
 2341 07ed 09       		.uleb128 0x9
 2342 07ee 3F040000 		.4byte	.LASF69
 2343 07f2 01       		.byte	0x1
 2344 07f3 B1       		.byte	0xb1
 2345 07f4 00000000 		.4byte	.LFB1
 2346 07f8 24000000 		.4byte	.LFE1-.LFB1
 2347 07fc 01       		.uleb128 0x1
 2348 07fd 9C       		.byte	0x9c
 2349 07fe 39080000 		.4byte	0x839
 2350 0802 0E       		.uleb128 0xe
 2351 0803 F5050000 		.4byte	.LASF25
 2352 0807 01       		.byte	0x1
 2353 0808 B3       		.byte	0xb3
 2354 0809 6B000000 		.4byte	0x6b
 2355 080d 29050000 		.4byte	.LLST42
 2356 0811 0F       		.uleb128 0xf
 2357 0812 08000000 		.4byte	.LVL85
 2358 0816 19090000 		.4byte	0x919
 2359 081a 0F       		.uleb128 0xf
 2360 081b 14000000 		.4byte	.LVL86
 2361 081f 24090000 		.4byte	0x924
 2362 0823 16       		.uleb128 0x16
ARM GAS  C:\Users\gizmo\AppData\Local\Temp\cc1VMdzg.s 			page 71


 2363 0824 1C000000 		.4byte	.LVL87
 2364 0828 94070000 		.4byte	0x794
 2365 082c 17       		.uleb128 0x17
 2366 082d 01       		.uleb128 0x1
 2367 082e 51       		.byte	0x51
 2368 082f 01       		.uleb128 0x1
 2369 0830 48       		.byte	0x48
 2370 0831 17       		.uleb128 0x17
 2371 0832 01       		.uleb128 0x1
 2372 0833 50       		.byte	0x50
 2373 0834 02       		.uleb128 0x2
 2374 0835 74       		.byte	0x74
 2375 0836 00       		.sleb128 0
 2376 0837 00       		.byte	0
 2377 0838 00       		.byte	0
 2378 0839 09       		.uleb128 0x9
 2379 083a 76020000 		.4byte	.LASF70
 2380 083e 01       		.byte	0x1
 2381 083f E0       		.byte	0xe0
 2382 0840 00000000 		.4byte	.LFB2
 2383 0844 1C000000 		.4byte	.LFE2-.LFB2
 2384 0848 01       		.uleb128 0x1
 2385 0849 9C       		.byte	0x9c
 2386 084a 61080000 		.4byte	0x861
 2387 084e 0F       		.uleb128 0xf
 2388 084f 0E000000 		.4byte	.LVL88
 2389 0853 FC000000 		.4byte	0xfc
 2390 0857 0F       		.uleb128 0xf
 2391 0858 16000000 		.4byte	.LVL89
 2392 085c ED070000 		.4byte	0x7ed
 2393 0860 00       		.byte	0
 2394 0861 15       		.uleb128 0x15
 2395 0862 58030000 		.4byte	.LASF71
 2396 0866 01       		.byte	0x1
 2397 0867 EB04     		.2byte	0x4eb
 2398 0869 76000000 		.4byte	0x76
 2399 086d 00000000 		.4byte	.LFB34
 2400 0871 14000000 		.4byte	.LFE34-.LFB34
 2401 0875 01       		.uleb128 0x1
 2402 0876 9C       		.byte	0x9c
 2403 0877 13       		.uleb128 0x13
 2404 0878 AE000000 		.4byte	0xae
 2405 087c 00000000 		.4byte	.LFB35
 2406 0880 0C000000 		.4byte	.LFE35-.LFB35
 2407 0884 01       		.uleb128 0x1
 2408 0885 9C       		.byte	0x9c
 2409 0886 92080000 		.4byte	0x892
 2410 088a 18       		.uleb128 0x18
 2411 088b BB000000 		.4byte	0xbb
 2412 088f 01       		.uleb128 0x1
 2413 0890 50       		.byte	0x50
 2414 0891 00       		.byte	0
 2415 0892 15       		.uleb128 0x15
 2416 0893 FC020000 		.4byte	.LASF72
 2417 0897 01       		.byte	0x1
 2418 0898 1B05     		.2byte	0x51b
 2419 089a 76000000 		.4byte	0x76
ARM GAS  C:\Users\gizmo\AppData\Local\Temp\cc1VMdzg.s 			page 72


 2420 089e 00000000 		.4byte	.LFB36
 2421 08a2 0C000000 		.4byte	.LFE36-.LFB36
 2422 08a6 01       		.uleb128 0x1
 2423 08a7 9C       		.byte	0x9c
 2424 08a8 15       		.uleb128 0x15
 2425 08a9 B0050000 		.4byte	.LASF73
 2426 08ad 01       		.byte	0x1
 2427 08ae 3205     		.2byte	0x532
 2428 08b0 76000000 		.4byte	0x76
 2429 08b4 00000000 		.4byte	.LFB37
 2430 08b8 0C000000 		.4byte	.LFE37-.LFB37
 2431 08bc 01       		.uleb128 0x1
 2432 08bd 9C       		.byte	0x9c
 2433 08be 10       		.uleb128 0x10
 2434 08bf 00040000 		.4byte	.LASF74
 2435 08c3 01       		.byte	0x1
 2436 08c4 4905     		.2byte	0x549
 2437 08c6 00000000 		.4byte	.LFB38
 2438 08ca 0C000000 		.4byte	.LFE38-.LFB38
 2439 08ce 01       		.uleb128 0x1
 2440 08cf 9C       		.byte	0x9c
 2441 08d0 E3080000 		.4byte	0x8e3
 2442 08d4 19       		.uleb128 0x19
 2443 08d5 1D050000 		.4byte	.LASF18
 2444 08d9 01       		.byte	0x1
 2445 08da 4905     		.2byte	0x549
 2446 08dc 76000000 		.4byte	0x76
 2447 08e0 01       		.uleb128 0x1
 2448 08e1 50       		.byte	0x50
 2449 08e2 00       		.byte	0
 2450 08e3 10       		.uleb128 0x10
 2451 08e4 06060000 		.4byte	.LASF75
 2452 08e8 01       		.byte	0x1
 2453 08e9 6005     		.2byte	0x560
 2454 08eb 00000000 		.4byte	.LFB39
 2455 08ef 0C000000 		.4byte	.LFE39-.LFB39
 2456 08f3 01       		.uleb128 0x1
 2457 08f4 9C       		.byte	0x9c
 2458 08f5 08090000 		.4byte	0x908
 2459 08f9 19       		.uleb128 0x19
 2460 08fa 1D050000 		.4byte	.LASF18
 2461 08fe 01       		.byte	0x1
 2462 08ff 6005     		.2byte	0x560
 2463 0901 76000000 		.4byte	0x76
 2464 0905 01       		.uleb128 0x1
 2465 0906 50       		.byte	0x50
 2466 0907 00       		.byte	0
 2467 0908 1A       		.uleb128 0x1a
 2468 0909 22020000 		.4byte	.LASF79
 2469 090d 01       		.byte	0x1
 2470 090e 15       		.byte	0x15
 2471 090f 6B000000 		.4byte	0x6b
 2472 0913 05       		.uleb128 0x5
 2473 0914 03       		.byte	0x3
 2474 0915 00000000 		.4byte	Timer_1_initVar
 2475 0919 1B       		.uleb128 0x1b
 2476 091a 84020000 		.4byte	.LASF80
ARM GAS  C:\Users\gizmo\AppData\Local\Temp\cc1VMdzg.s 			page 73


 2477 091e 03       		.byte	0x3
 2478 091f 5E       		.byte	0x5e
 2479 0920 6B000000 		.4byte	0x6b
 2480 0924 1C       		.uleb128 0x1c
 2481 0925 94000000 		.4byte	.LASF81
 2482 0929 03       		.byte	0x3
 2483 092a 5F       		.byte	0x5f
 2484 092b 1D       		.uleb128 0x1d
 2485 092c 6B000000 		.4byte	0x6b
 2486 0930 00       		.byte	0
 2487 0931 00       		.byte	0
 2488              		.section	.debug_abbrev,"",%progbits
 2489              	.Ldebug_abbrev0:
 2490 0000 01       		.uleb128 0x1
 2491 0001 11       		.uleb128 0x11
 2492 0002 01       		.byte	0x1
 2493 0003 25       		.uleb128 0x25
 2494 0004 0E       		.uleb128 0xe
 2495 0005 13       		.uleb128 0x13
 2496 0006 0B       		.uleb128 0xb
 2497 0007 03       		.uleb128 0x3
 2498 0008 0E       		.uleb128 0xe
 2499 0009 1B       		.uleb128 0x1b
 2500 000a 0E       		.uleb128 0xe
 2501 000b 55       		.uleb128 0x55
 2502 000c 17       		.uleb128 0x17
 2503 000d 11       		.uleb128 0x11
 2504 000e 01       		.uleb128 0x1
 2505 000f 10       		.uleb128 0x10
 2506 0010 17       		.uleb128 0x17
 2507 0011 00       		.byte	0
 2508 0012 00       		.byte	0
 2509 0013 02       		.uleb128 0x2
 2510 0014 24       		.uleb128 0x24
 2511 0015 00       		.byte	0
 2512 0016 0B       		.uleb128 0xb
 2513 0017 0B       		.uleb128 0xb
 2514 0018 3E       		.uleb128 0x3e
 2515 0019 0B       		.uleb128 0xb
 2516 001a 03       		.uleb128 0x3
 2517 001b 0E       		.uleb128 0xe
 2518 001c 00       		.byte	0
 2519 001d 00       		.byte	0
 2520 001e 03       		.uleb128 0x3
 2521 001f 24       		.uleb128 0x24
 2522 0020 00       		.byte	0
 2523 0021 0B       		.uleb128 0xb
 2524 0022 0B       		.uleb128 0xb
 2525 0023 3E       		.uleb128 0x3e
 2526 0024 0B       		.uleb128 0xb
 2527 0025 03       		.uleb128 0x3
 2528 0026 08       		.uleb128 0x8
 2529 0027 00       		.byte	0
 2530 0028 00       		.byte	0
 2531 0029 04       		.uleb128 0x4
 2532 002a 16       		.uleb128 0x16
 2533 002b 00       		.byte	0
ARM GAS  C:\Users\gizmo\AppData\Local\Temp\cc1VMdzg.s 			page 74


 2534 002c 03       		.uleb128 0x3
 2535 002d 0E       		.uleb128 0xe
 2536 002e 3A       		.uleb128 0x3a
 2537 002f 0B       		.uleb128 0xb
 2538 0030 3B       		.uleb128 0x3b
 2539 0031 0B       		.uleb128 0xb
 2540 0032 49       		.uleb128 0x49
 2541 0033 13       		.uleb128 0x13
 2542 0034 00       		.byte	0
 2543 0035 00       		.byte	0
 2544 0036 05       		.uleb128 0x5
 2545 0037 16       		.uleb128 0x16
 2546 0038 00       		.byte	0
 2547 0039 03       		.uleb128 0x3
 2548 003a 0E       		.uleb128 0xe
 2549 003b 3A       		.uleb128 0x3a
 2550 003c 0B       		.uleb128 0xb
 2551 003d 3B       		.uleb128 0x3b
 2552 003e 05       		.uleb128 0x5
 2553 003f 49       		.uleb128 0x49
 2554 0040 13       		.uleb128 0x13
 2555 0041 00       		.byte	0
 2556 0042 00       		.byte	0
 2557 0043 06       		.uleb128 0x6
 2558 0044 35       		.uleb128 0x35
 2559 0045 00       		.byte	0
 2560 0046 49       		.uleb128 0x49
 2561 0047 13       		.uleb128 0x13
 2562 0048 00       		.byte	0
 2563 0049 00       		.byte	0
 2564 004a 07       		.uleb128 0x7
 2565 004b 2E       		.uleb128 0x2e
 2566 004c 01       		.byte	0x1
 2567 004d 3F       		.uleb128 0x3f
 2568 004e 19       		.uleb128 0x19
 2569 004f 03       		.uleb128 0x3
 2570 0050 0E       		.uleb128 0xe
 2571 0051 3A       		.uleb128 0x3a
 2572 0052 0B       		.uleb128 0xb
 2573 0053 3B       		.uleb128 0x3b
 2574 0054 05       		.uleb128 0x5
 2575 0055 27       		.uleb128 0x27
 2576 0056 19       		.uleb128 0x19
 2577 0057 20       		.uleb128 0x20
 2578 0058 0B       		.uleb128 0xb
 2579 0059 01       		.uleb128 0x1
 2580 005a 13       		.uleb128 0x13
 2581 005b 00       		.byte	0
 2582 005c 00       		.byte	0
 2583 005d 08       		.uleb128 0x8
 2584 005e 05       		.uleb128 0x5
 2585 005f 00       		.byte	0
 2586 0060 03       		.uleb128 0x3
 2587 0061 0E       		.uleb128 0xe
 2588 0062 3A       		.uleb128 0x3a
 2589 0063 0B       		.uleb128 0xb
 2590 0064 3B       		.uleb128 0x3b
ARM GAS  C:\Users\gizmo\AppData\Local\Temp\cc1VMdzg.s 			page 75


 2591 0065 05       		.uleb128 0x5
 2592 0066 49       		.uleb128 0x49
 2593 0067 13       		.uleb128 0x13
 2594 0068 00       		.byte	0
 2595 0069 00       		.byte	0
 2596 006a 09       		.uleb128 0x9
 2597 006b 2E       		.uleb128 0x2e
 2598 006c 01       		.byte	0x1
 2599 006d 3F       		.uleb128 0x3f
 2600 006e 19       		.uleb128 0x19
 2601 006f 03       		.uleb128 0x3
 2602 0070 0E       		.uleb128 0xe
 2603 0071 3A       		.uleb128 0x3a
 2604 0072 0B       		.uleb128 0xb
 2605 0073 3B       		.uleb128 0x3b
 2606 0074 0B       		.uleb128 0xb
 2607 0075 27       		.uleb128 0x27
 2608 0076 19       		.uleb128 0x19
 2609 0077 11       		.uleb128 0x11
 2610 0078 01       		.uleb128 0x1
 2611 0079 12       		.uleb128 0x12
 2612 007a 06       		.uleb128 0x6
 2613 007b 40       		.uleb128 0x40
 2614 007c 18       		.uleb128 0x18
 2615 007d 9742     		.uleb128 0x2117
 2616 007f 19       		.uleb128 0x19
 2617 0080 01       		.uleb128 0x1
 2618 0081 13       		.uleb128 0x13
 2619 0082 00       		.byte	0
 2620 0083 00       		.byte	0
 2621 0084 0A       		.uleb128 0xa
 2622 0085 1D       		.uleb128 0x1d
 2623 0086 01       		.byte	0x1
 2624 0087 31       		.uleb128 0x31
 2625 0088 13       		.uleb128 0x13
 2626 0089 11       		.uleb128 0x11
 2627 008a 01       		.uleb128 0x1
 2628 008b 12       		.uleb128 0x12
 2629 008c 06       		.uleb128 0x6
 2630 008d 58       		.uleb128 0x58
 2631 008e 0B       		.uleb128 0xb
 2632 008f 59       		.uleb128 0x59
 2633 0090 0B       		.uleb128 0xb
 2634 0091 01       		.uleb128 0x1
 2635 0092 13       		.uleb128 0x13
 2636 0093 00       		.byte	0
 2637 0094 00       		.byte	0
 2638 0095 0B       		.uleb128 0xb
 2639 0096 05       		.uleb128 0x5
 2640 0097 00       		.byte	0
 2641 0098 31       		.uleb128 0x31
 2642 0099 13       		.uleb128 0x13
 2643 009a 1C       		.uleb128 0x1c
 2644 009b 0B       		.uleb128 0xb
 2645 009c 00       		.byte	0
 2646 009d 00       		.byte	0
 2647 009e 0C       		.uleb128 0xc
ARM GAS  C:\Users\gizmo\AppData\Local\Temp\cc1VMdzg.s 			page 76


 2648 009f 05       		.uleb128 0x5
 2649 00a0 00       		.byte	0
 2650 00a1 31       		.uleb128 0x31
 2651 00a2 13       		.uleb128 0x13
 2652 00a3 1C       		.uleb128 0x1c
 2653 00a4 05       		.uleb128 0x5
 2654 00a5 00       		.byte	0
 2655 00a6 00       		.byte	0
 2656 00a7 0D       		.uleb128 0xd
 2657 00a8 1D       		.uleb128 0x1d
 2658 00a9 01       		.byte	0x1
 2659 00aa 31       		.uleb128 0x31
 2660 00ab 13       		.uleb128 0x13
 2661 00ac 11       		.uleb128 0x11
 2662 00ad 01       		.uleb128 0x1
 2663 00ae 12       		.uleb128 0x12
 2664 00af 06       		.uleb128 0x6
 2665 00b0 58       		.uleb128 0x58
 2666 00b1 0B       		.uleb128 0xb
 2667 00b2 59       		.uleb128 0x59
 2668 00b3 0B       		.uleb128 0xb
 2669 00b4 00       		.byte	0
 2670 00b5 00       		.byte	0
 2671 00b6 0E       		.uleb128 0xe
 2672 00b7 34       		.uleb128 0x34
 2673 00b8 00       		.byte	0
 2674 00b9 03       		.uleb128 0x3
 2675 00ba 0E       		.uleb128 0xe
 2676 00bb 3A       		.uleb128 0x3a
 2677 00bc 0B       		.uleb128 0xb
 2678 00bd 3B       		.uleb128 0x3b
 2679 00be 0B       		.uleb128 0xb
 2680 00bf 49       		.uleb128 0x49
 2681 00c0 13       		.uleb128 0x13
 2682 00c1 02       		.uleb128 0x2
 2683 00c2 17       		.uleb128 0x17
 2684 00c3 00       		.byte	0
 2685 00c4 00       		.byte	0
 2686 00c5 0F       		.uleb128 0xf
 2687 00c6 898201   		.uleb128 0x4109
 2688 00c9 00       		.byte	0
 2689 00ca 11       		.uleb128 0x11
 2690 00cb 01       		.uleb128 0x1
 2691 00cc 31       		.uleb128 0x31
 2692 00cd 13       		.uleb128 0x13
 2693 00ce 00       		.byte	0
 2694 00cf 00       		.byte	0
 2695 00d0 10       		.uleb128 0x10
 2696 00d1 2E       		.uleb128 0x2e
 2697 00d2 01       		.byte	0x1
 2698 00d3 3F       		.uleb128 0x3f
 2699 00d4 19       		.uleb128 0x19
 2700 00d5 03       		.uleb128 0x3
 2701 00d6 0E       		.uleb128 0xe
 2702 00d7 3A       		.uleb128 0x3a
 2703 00d8 0B       		.uleb128 0xb
 2704 00d9 3B       		.uleb128 0x3b
ARM GAS  C:\Users\gizmo\AppData\Local\Temp\cc1VMdzg.s 			page 77


 2705 00da 05       		.uleb128 0x5
 2706 00db 27       		.uleb128 0x27
 2707 00dc 19       		.uleb128 0x19
 2708 00dd 11       		.uleb128 0x11
 2709 00de 01       		.uleb128 0x1
 2710 00df 12       		.uleb128 0x12
 2711 00e0 06       		.uleb128 0x6
 2712 00e1 40       		.uleb128 0x40
 2713 00e2 18       		.uleb128 0x18
 2714 00e3 9742     		.uleb128 0x2117
 2715 00e5 19       		.uleb128 0x19
 2716 00e6 01       		.uleb128 0x1
 2717 00e7 13       		.uleb128 0x13
 2718 00e8 00       		.byte	0
 2719 00e9 00       		.byte	0
 2720 00ea 11       		.uleb128 0x11
 2721 00eb 05       		.uleb128 0x5
 2722 00ec 00       		.byte	0
 2723 00ed 03       		.uleb128 0x3
 2724 00ee 0E       		.uleb128 0xe
 2725 00ef 3A       		.uleb128 0x3a
 2726 00f0 0B       		.uleb128 0xb
 2727 00f1 3B       		.uleb128 0x3b
 2728 00f2 05       		.uleb128 0x5
 2729 00f3 49       		.uleb128 0x49
 2730 00f4 13       		.uleb128 0x13
 2731 00f5 02       		.uleb128 0x2
 2732 00f6 17       		.uleb128 0x17
 2733 00f7 00       		.byte	0
 2734 00f8 00       		.byte	0
 2735 00f9 12       		.uleb128 0x12
 2736 00fa 34       		.uleb128 0x34
 2737 00fb 00       		.byte	0
 2738 00fc 03       		.uleb128 0x3
 2739 00fd 0E       		.uleb128 0xe
 2740 00fe 3A       		.uleb128 0x3a
 2741 00ff 0B       		.uleb128 0xb
 2742 0100 3B       		.uleb128 0x3b
 2743 0101 05       		.uleb128 0x5
 2744 0102 49       		.uleb128 0x49
 2745 0103 13       		.uleb128 0x13
 2746 0104 02       		.uleb128 0x2
 2747 0105 17       		.uleb128 0x17
 2748 0106 00       		.byte	0
 2749 0107 00       		.byte	0
 2750 0108 13       		.uleb128 0x13
 2751 0109 2E       		.uleb128 0x2e
 2752 010a 01       		.byte	0x1
 2753 010b 31       		.uleb128 0x31
 2754 010c 13       		.uleb128 0x13
 2755 010d 11       		.uleb128 0x11
 2756 010e 01       		.uleb128 0x1
 2757 010f 12       		.uleb128 0x12
 2758 0110 06       		.uleb128 0x6
 2759 0111 40       		.uleb128 0x40
 2760 0112 18       		.uleb128 0x18
 2761 0113 9742     		.uleb128 0x2117
ARM GAS  C:\Users\gizmo\AppData\Local\Temp\cc1VMdzg.s 			page 78


 2762 0115 19       		.uleb128 0x19
 2763 0116 01       		.uleb128 0x1
 2764 0117 13       		.uleb128 0x13
 2765 0118 00       		.byte	0
 2766 0119 00       		.byte	0
 2767 011a 14       		.uleb128 0x14
 2768 011b 05       		.uleb128 0x5
 2769 011c 00       		.byte	0
 2770 011d 31       		.uleb128 0x31
 2771 011e 13       		.uleb128 0x13
 2772 011f 02       		.uleb128 0x2
 2773 0120 17       		.uleb128 0x17
 2774 0121 00       		.byte	0
 2775 0122 00       		.byte	0
 2776 0123 15       		.uleb128 0x15
 2777 0124 2E       		.uleb128 0x2e
 2778 0125 00       		.byte	0
 2779 0126 3F       		.uleb128 0x3f
 2780 0127 19       		.uleb128 0x19
 2781 0128 03       		.uleb128 0x3
 2782 0129 0E       		.uleb128 0xe
 2783 012a 3A       		.uleb128 0x3a
 2784 012b 0B       		.uleb128 0xb
 2785 012c 3B       		.uleb128 0x3b
 2786 012d 05       		.uleb128 0x5
 2787 012e 27       		.uleb128 0x27
 2788 012f 19       		.uleb128 0x19
 2789 0130 49       		.uleb128 0x49
 2790 0131 13       		.uleb128 0x13
 2791 0132 11       		.uleb128 0x11
 2792 0133 01       		.uleb128 0x1
 2793 0134 12       		.uleb128 0x12
 2794 0135 06       		.uleb128 0x6
 2795 0136 40       		.uleb128 0x40
 2796 0137 18       		.uleb128 0x18
 2797 0138 9742     		.uleb128 0x2117
 2798 013a 19       		.uleb128 0x19
 2799 013b 00       		.byte	0
 2800 013c 00       		.byte	0
 2801 013d 16       		.uleb128 0x16
 2802 013e 898201   		.uleb128 0x4109
 2803 0141 01       		.byte	0x1
 2804 0142 11       		.uleb128 0x11
 2805 0143 01       		.uleb128 0x1
 2806 0144 31       		.uleb128 0x31
 2807 0145 13       		.uleb128 0x13
 2808 0146 00       		.byte	0
 2809 0147 00       		.byte	0
 2810 0148 17       		.uleb128 0x17
 2811 0149 8A8201   		.uleb128 0x410a
 2812 014c 00       		.byte	0
 2813 014d 02       		.uleb128 0x2
 2814 014e 18       		.uleb128 0x18
 2815 014f 9142     		.uleb128 0x2111
 2816 0151 18       		.uleb128 0x18
 2817 0152 00       		.byte	0
 2818 0153 00       		.byte	0
ARM GAS  C:\Users\gizmo\AppData\Local\Temp\cc1VMdzg.s 			page 79


 2819 0154 18       		.uleb128 0x18
 2820 0155 05       		.uleb128 0x5
 2821 0156 00       		.byte	0
 2822 0157 31       		.uleb128 0x31
 2823 0158 13       		.uleb128 0x13
 2824 0159 02       		.uleb128 0x2
 2825 015a 18       		.uleb128 0x18
 2826 015b 00       		.byte	0
 2827 015c 00       		.byte	0
 2828 015d 19       		.uleb128 0x19
 2829 015e 05       		.uleb128 0x5
 2830 015f 00       		.byte	0
 2831 0160 03       		.uleb128 0x3
 2832 0161 0E       		.uleb128 0xe
 2833 0162 3A       		.uleb128 0x3a
 2834 0163 0B       		.uleb128 0xb
 2835 0164 3B       		.uleb128 0x3b
 2836 0165 05       		.uleb128 0x5
 2837 0166 49       		.uleb128 0x49
 2838 0167 13       		.uleb128 0x13
 2839 0168 02       		.uleb128 0x2
 2840 0169 18       		.uleb128 0x18
 2841 016a 00       		.byte	0
 2842 016b 00       		.byte	0
 2843 016c 1A       		.uleb128 0x1a
 2844 016d 34       		.uleb128 0x34
 2845 016e 00       		.byte	0
 2846 016f 03       		.uleb128 0x3
 2847 0170 0E       		.uleb128 0xe
 2848 0171 3A       		.uleb128 0x3a
 2849 0172 0B       		.uleb128 0xb
 2850 0173 3B       		.uleb128 0x3b
 2851 0174 0B       		.uleb128 0xb
 2852 0175 49       		.uleb128 0x49
 2853 0176 13       		.uleb128 0x13
 2854 0177 3F       		.uleb128 0x3f
 2855 0178 19       		.uleb128 0x19
 2856 0179 02       		.uleb128 0x2
 2857 017a 18       		.uleb128 0x18
 2858 017b 00       		.byte	0
 2859 017c 00       		.byte	0
 2860 017d 1B       		.uleb128 0x1b
 2861 017e 2E       		.uleb128 0x2e
 2862 017f 00       		.byte	0
 2863 0180 3F       		.uleb128 0x3f
 2864 0181 19       		.uleb128 0x19
 2865 0182 03       		.uleb128 0x3
 2866 0183 0E       		.uleb128 0xe
 2867 0184 3A       		.uleb128 0x3a
 2868 0185 0B       		.uleb128 0xb
 2869 0186 3B       		.uleb128 0x3b
 2870 0187 0B       		.uleb128 0xb
 2871 0188 27       		.uleb128 0x27
 2872 0189 19       		.uleb128 0x19
 2873 018a 49       		.uleb128 0x49
 2874 018b 13       		.uleb128 0x13
 2875 018c 3C       		.uleb128 0x3c
ARM GAS  C:\Users\gizmo\AppData\Local\Temp\cc1VMdzg.s 			page 80


 2876 018d 19       		.uleb128 0x19
 2877 018e 00       		.byte	0
 2878 018f 00       		.byte	0
 2879 0190 1C       		.uleb128 0x1c
 2880 0191 2E       		.uleb128 0x2e
 2881 0192 01       		.byte	0x1
 2882 0193 3F       		.uleb128 0x3f
 2883 0194 19       		.uleb128 0x19
 2884 0195 03       		.uleb128 0x3
 2885 0196 0E       		.uleb128 0xe
 2886 0197 3A       		.uleb128 0x3a
 2887 0198 0B       		.uleb128 0xb
 2888 0199 3B       		.uleb128 0x3b
 2889 019a 0B       		.uleb128 0xb
 2890 019b 27       		.uleb128 0x27
 2891 019c 19       		.uleb128 0x19
 2892 019d 3C       		.uleb128 0x3c
 2893 019e 19       		.uleb128 0x19
 2894 019f 00       		.byte	0
 2895 01a0 00       		.byte	0
 2896 01a1 1D       		.uleb128 0x1d
 2897 01a2 05       		.uleb128 0x5
 2898 01a3 00       		.byte	0
 2899 01a4 49       		.uleb128 0x49
 2900 01a5 13       		.uleb128 0x13
 2901 01a6 00       		.byte	0
 2902 01a7 00       		.byte	0
 2903 01a8 00       		.byte	0
 2904              		.section	.debug_loc,"",%progbits
 2905              	.Ldebug_loc0:
 2906              	.LLST0:
 2907 0000 06000000 		.4byte	.LVL3
 2908 0004 13000000 		.4byte	.LVL4-1
 2909 0008 0100     		.2byte	0x1
 2910 000a 50       		.byte	0x50
 2911 000b 00000000 		.4byte	0
 2912 000f 00000000 		.4byte	0
 2913              	.LLST1:
 2914 0013 00000000 		.4byte	.LVL5
 2915 0017 07000000 		.4byte	.LVL6-1
 2916 001b 0100     		.2byte	0x1
 2917 001d 50       		.byte	0x50
 2918 001e 07000000 		.4byte	.LVL6-1
 2919 0022 1C000000 		.4byte	.LVL8
 2920 0026 0100     		.2byte	0x1
 2921 0028 54       		.byte	0x54
 2922 0029 1C000000 		.4byte	.LVL8
 2923 002d 28000000 		.4byte	.LFE4
 2924 0031 0400     		.2byte	0x4
 2925 0033 F3       		.byte	0xf3
 2926 0034 01       		.uleb128 0x1
 2927 0035 50       		.byte	0x50
 2928 0036 9F       		.byte	0x9f
 2929 0037 00000000 		.4byte	0
 2930 003b 00000000 		.4byte	0
 2931              	.LLST2:
 2932 003f 08000000 		.4byte	.LVL6
ARM GAS  C:\Users\gizmo\AppData\Local\Temp\cc1VMdzg.s 			page 81


 2933 0043 1B000000 		.4byte	.LVL7-1
 2934 0047 0100     		.2byte	0x1
 2935 0049 50       		.byte	0x50
 2936 004a 00000000 		.4byte	0
 2937 004e 00000000 		.4byte	0
 2938              	.LLST3:
 2939 0052 00000000 		.4byte	.LVL9
 2940 0056 07000000 		.4byte	.LVL10-1
 2941 005a 0100     		.2byte	0x1
 2942 005c 50       		.byte	0x50
 2943 005d 07000000 		.4byte	.LVL10-1
 2944 0061 1C000000 		.4byte	.LVL12
 2945 0065 0100     		.2byte	0x1
 2946 0067 54       		.byte	0x54
 2947 0068 1C000000 		.4byte	.LVL12
 2948 006c 28000000 		.4byte	.LFE5
 2949 0070 0400     		.2byte	0x4
 2950 0072 F3       		.byte	0xf3
 2951 0073 01       		.uleb128 0x1
 2952 0074 50       		.byte	0x50
 2953 0075 9F       		.byte	0x9f
 2954 0076 00000000 		.4byte	0
 2955 007a 00000000 		.4byte	0
 2956              	.LLST4:
 2957 007e 08000000 		.4byte	.LVL10
 2958 0082 1B000000 		.4byte	.LVL11-1
 2959 0086 0100     		.2byte	0x1
 2960 0088 50       		.byte	0x50
 2961 0089 00000000 		.4byte	0
 2962 008d 00000000 		.4byte	0
 2963              	.LLST5:
 2964 0091 00000000 		.4byte	.LVL13
 2965 0095 07000000 		.4byte	.LVL14-1
 2966 0099 0100     		.2byte	0x1
 2967 009b 50       		.byte	0x50
 2968 009c 07000000 		.4byte	.LVL14-1
 2969 00a0 1C000000 		.4byte	.LVL16
 2970 00a4 0100     		.2byte	0x1
 2971 00a6 54       		.byte	0x54
 2972 00a7 1C000000 		.4byte	.LVL16
 2973 00ab 28000000 		.4byte	.LFE6
 2974 00af 0400     		.2byte	0x4
 2975 00b1 F3       		.byte	0xf3
 2976 00b2 01       		.uleb128 0x1
 2977 00b3 50       		.byte	0x50
 2978 00b4 9F       		.byte	0x9f
 2979 00b5 00000000 		.4byte	0
 2980 00b9 00000000 		.4byte	0
 2981              	.LLST6:
 2982 00bd 08000000 		.4byte	.LVL14
 2983 00c1 1B000000 		.4byte	.LVL15-1
 2984 00c5 0100     		.2byte	0x1
 2985 00c7 50       		.byte	0x50
 2986 00c8 00000000 		.4byte	0
 2987 00cc 00000000 		.4byte	0
 2988              	.LLST7:
 2989 00d0 00000000 		.4byte	.LVL17
ARM GAS  C:\Users\gizmo\AppData\Local\Temp\cc1VMdzg.s 			page 82


 2990 00d4 07000000 		.4byte	.LVL18-1
 2991 00d8 0100     		.2byte	0x1
 2992 00da 50       		.byte	0x50
 2993 00db 07000000 		.4byte	.LVL18-1
 2994 00df 22000000 		.4byte	.LVL20
 2995 00e3 0100     		.2byte	0x1
 2996 00e5 54       		.byte	0x54
 2997 00e6 22000000 		.4byte	.LVL20
 2998 00ea 2C000000 		.4byte	.LFE7
 2999 00ee 0400     		.2byte	0x4
 3000 00f0 F3       		.byte	0xf3
 3001 00f1 01       		.uleb128 0x1
 3002 00f2 50       		.byte	0x50
 3003 00f3 9F       		.byte	0x9f
 3004 00f4 00000000 		.4byte	0
 3005 00f8 00000000 		.4byte	0
 3006              	.LLST8:
 3007 00fc 08000000 		.4byte	.LVL18
 3008 0100 21000000 		.4byte	.LVL19-1
 3009 0104 0100     		.2byte	0x1
 3010 0106 50       		.byte	0x50
 3011 0107 00000000 		.4byte	0
 3012 010b 00000000 		.4byte	0
 3013              	.LLST9:
 3014 010f 00000000 		.4byte	.LVL21
 3015 0113 04000000 		.4byte	.LVL22
 3016 0117 0100     		.2byte	0x1
 3017 0119 50       		.byte	0x50
 3018 011a 04000000 		.4byte	.LVL22
 3019 011e 10000000 		.4byte	.LFE8
 3020 0122 0400     		.2byte	0x4
 3021 0124 F3       		.byte	0xf3
 3022 0125 01       		.uleb128 0x1
 3023 0126 50       		.byte	0x50
 3024 0127 9F       		.byte	0x9f
 3025 0128 00000000 		.4byte	0
 3026 012c 00000000 		.4byte	0
 3027              	.LLST10:
 3028 0130 00000000 		.4byte	.LVL23
 3029 0134 07000000 		.4byte	.LVL24-1
 3030 0138 0100     		.2byte	0x1
 3031 013a 50       		.byte	0x50
 3032 013b 07000000 		.4byte	.LVL24-1
 3033 013f 22000000 		.4byte	.LVL26
 3034 0143 0100     		.2byte	0x1
 3035 0145 54       		.byte	0x54
 3036 0146 22000000 		.4byte	.LVL26
 3037 014a 28000000 		.4byte	.LFE9
 3038 014e 0400     		.2byte	0x4
 3039 0150 F3       		.byte	0xf3
 3040 0151 01       		.uleb128 0x1
 3041 0152 50       		.byte	0x50
 3042 0153 9F       		.byte	0x9f
 3043 0154 00000000 		.4byte	0
 3044 0158 00000000 		.4byte	0
 3045              	.LLST11:
 3046 015c 08000000 		.4byte	.LVL24
ARM GAS  C:\Users\gizmo\AppData\Local\Temp\cc1VMdzg.s 			page 83


 3047 0160 21000000 		.4byte	.LVL25-1
 3048 0164 0100     		.2byte	0x1
 3049 0166 50       		.byte	0x50
 3050 0167 00000000 		.4byte	0
 3051 016b 00000000 		.4byte	0
 3052              	.LLST12:
 3053 016f 00000000 		.4byte	.LVL27
 3054 0173 07000000 		.4byte	.LVL28-1
 3055 0177 0100     		.2byte	0x1
 3056 0179 50       		.byte	0x50
 3057 017a 07000000 		.4byte	.LVL28-1
 3058 017e 22000000 		.4byte	.LVL30
 3059 0182 0100     		.2byte	0x1
 3060 0184 54       		.byte	0x54
 3061 0185 22000000 		.4byte	.LVL30
 3062 0189 28000000 		.4byte	.LFE10
 3063 018d 0400     		.2byte	0x4
 3064 018f F3       		.byte	0xf3
 3065 0190 01       		.uleb128 0x1
 3066 0191 50       		.byte	0x50
 3067 0192 9F       		.byte	0x9f
 3068 0193 00000000 		.4byte	0
 3069 0197 00000000 		.4byte	0
 3070              	.LLST13:
 3071 019b 08000000 		.4byte	.LVL28
 3072 019f 21000000 		.4byte	.LVL29-1
 3073 01a3 0100     		.2byte	0x1
 3074 01a5 50       		.byte	0x50
 3075 01a6 00000000 		.4byte	0
 3076 01aa 00000000 		.4byte	0
 3077              	.LLST14:
 3078 01ae 00000000 		.4byte	.LVL31
 3079 01b2 07000000 		.4byte	.LVL32-1
 3080 01b6 0100     		.2byte	0x1
 3081 01b8 50       		.byte	0x50
 3082 01b9 07000000 		.4byte	.LVL32-1
 3083 01bd 10000000 		.4byte	.LVL33
 3084 01c1 0100     		.2byte	0x1
 3085 01c3 54       		.byte	0x54
 3086 01c4 10000000 		.4byte	.LVL33
 3087 01c8 2C000000 		.4byte	.LFE11
 3088 01cc 0400     		.2byte	0x4
 3089 01ce F3       		.byte	0xf3
 3090 01cf 01       		.uleb128 0x1
 3091 01d0 50       		.byte	0x50
 3092 01d1 9F       		.byte	0x9f
 3093 01d2 00000000 		.4byte	0
 3094 01d6 00000000 		.4byte	0
 3095              	.LLST15:
 3096 01da 08000000 		.4byte	.LVL32
 3097 01de 1F000000 		.4byte	.LVL34-1
 3098 01e2 0100     		.2byte	0x1
 3099 01e4 50       		.byte	0x50
 3100 01e5 00000000 		.4byte	0
 3101 01e9 00000000 		.4byte	0
 3102              	.LLST16:
 3103 01ed 00000000 		.4byte	.LVL35
ARM GAS  C:\Users\gizmo\AppData\Local\Temp\cc1VMdzg.s 			page 84


 3104 01f1 07000000 		.4byte	.LVL36-1
 3105 01f5 0100     		.2byte	0x1
 3106 01f7 50       		.byte	0x50
 3107 01f8 07000000 		.4byte	.LVL36-1
 3108 01fc 1C000000 		.4byte	.LVL38
 3109 0200 0100     		.2byte	0x1
 3110 0202 54       		.byte	0x54
 3111 0203 1C000000 		.4byte	.LVL38
 3112 0207 28000000 		.4byte	.LFE12
 3113 020b 0400     		.2byte	0x4
 3114 020d F3       		.byte	0xf3
 3115 020e 01       		.uleb128 0x1
 3116 020f 50       		.byte	0x50
 3117 0210 9F       		.byte	0x9f
 3118 0211 00000000 		.4byte	0
 3119 0215 00000000 		.4byte	0
 3120              	.LLST17:
 3121 0219 08000000 		.4byte	.LVL36
 3122 021d 1B000000 		.4byte	.LVL37-1
 3123 0221 0100     		.2byte	0x1
 3124 0223 50       		.byte	0x50
 3125 0224 00000000 		.4byte	0
 3126 0228 00000000 		.4byte	0
 3127              	.LLST18:
 3128 022c 00000000 		.4byte	.LVL39
 3129 0230 04000000 		.4byte	.LVL40
 3130 0234 0100     		.2byte	0x1
 3131 0236 50       		.byte	0x50
 3132 0237 04000000 		.4byte	.LVL40
 3133 023b 0C000000 		.4byte	.LFE13
 3134 023f 0400     		.2byte	0x4
 3135 0241 F3       		.byte	0xf3
 3136 0242 01       		.uleb128 0x1
 3137 0243 50       		.byte	0x50
 3138 0244 9F       		.byte	0x9f
 3139 0245 00000000 		.4byte	0
 3140 0249 00000000 		.4byte	0
 3141              	.LLST19:
 3142 024d 00000000 		.4byte	.LVL41
 3143 0251 07000000 		.4byte	.LVL42-1
 3144 0255 0100     		.2byte	0x1
 3145 0257 50       		.byte	0x50
 3146 0258 07000000 		.4byte	.LVL42-1
 3147 025c 1C000000 		.4byte	.LVL44
 3148 0260 0100     		.2byte	0x1
 3149 0262 54       		.byte	0x54
 3150 0263 1C000000 		.4byte	.LVL44
 3151 0267 28000000 		.4byte	.LFE15
 3152 026b 0400     		.2byte	0x4
 3153 026d F3       		.byte	0xf3
 3154 026e 01       		.uleb128 0x1
 3155 026f 50       		.byte	0x50
 3156 0270 9F       		.byte	0x9f
 3157 0271 00000000 		.4byte	0
 3158 0275 00000000 		.4byte	0
 3159              	.LLST20:
 3160 0279 08000000 		.4byte	.LVL42
ARM GAS  C:\Users\gizmo\AppData\Local\Temp\cc1VMdzg.s 			page 85


 3161 027d 1B000000 		.4byte	.LVL43-1
 3162 0281 0100     		.2byte	0x1
 3163 0283 50       		.byte	0x50
 3164 0284 00000000 		.4byte	0
 3165 0288 00000000 		.4byte	0
 3166              	.LLST21:
 3167 028c 00000000 		.4byte	.LVL45
 3168 0290 04000000 		.4byte	.LVL46
 3169 0294 0100     		.2byte	0x1
 3170 0296 50       		.byte	0x50
 3171 0297 04000000 		.4byte	.LVL46
 3172 029b 0C000000 		.4byte	.LFE16
 3173 029f 0400     		.2byte	0x4
 3174 02a1 F3       		.byte	0xf3
 3175 02a2 01       		.uleb128 0x1
 3176 02a3 50       		.byte	0x50
 3177 02a4 9F       		.byte	0x9f
 3178 02a5 00000000 		.4byte	0
 3179 02a9 00000000 		.4byte	0
 3180              	.LLST22:
 3181 02ad 00000000 		.4byte	.LVL47
 3182 02b1 07000000 		.4byte	.LVL48-1
 3183 02b5 0100     		.2byte	0x1
 3184 02b7 50       		.byte	0x50
 3185 02b8 07000000 		.4byte	.LVL48-1
 3186 02bc 1E000000 		.4byte	.LVL50
 3187 02c0 0100     		.2byte	0x1
 3188 02c2 54       		.byte	0x54
 3189 02c3 1E000000 		.4byte	.LVL50
 3190 02c7 24000000 		.4byte	.LFE18
 3191 02cb 0400     		.2byte	0x4
 3192 02cd F3       		.byte	0xf3
 3193 02ce 01       		.uleb128 0x1
 3194 02cf 50       		.byte	0x50
 3195 02d0 9F       		.byte	0x9f
 3196 02d1 00000000 		.4byte	0
 3197 02d5 00000000 		.4byte	0
 3198              	.LLST23:
 3199 02d9 08000000 		.4byte	.LVL48
 3200 02dd 1D000000 		.4byte	.LVL49-1
 3201 02e1 0100     		.2byte	0x1
 3202 02e3 50       		.byte	0x50
 3203 02e4 00000000 		.4byte	0
 3204 02e8 00000000 		.4byte	0
 3205              	.LLST24:
 3206 02ec 00000000 		.4byte	.LVL51
 3207 02f0 04000000 		.4byte	.LVL52
 3208 02f4 0100     		.2byte	0x1
 3209 02f6 50       		.byte	0x50
 3210 02f7 04000000 		.4byte	.LVL52
 3211 02fb 0C000000 		.4byte	.LFE19
 3212 02ff 0400     		.2byte	0x4
 3213 0301 F3       		.byte	0xf3
 3214 0302 01       		.uleb128 0x1
 3215 0303 50       		.byte	0x50
 3216 0304 9F       		.byte	0x9f
 3217 0305 00000000 		.4byte	0
ARM GAS  C:\Users\gizmo\AppData\Local\Temp\cc1VMdzg.s 			page 86


 3218 0309 00000000 		.4byte	0
 3219              	.LLST25:
 3220 030d 00000000 		.4byte	.LVL53
 3221 0311 07000000 		.4byte	.LVL54-1
 3222 0315 0100     		.2byte	0x1
 3223 0317 50       		.byte	0x50
 3224 0318 07000000 		.4byte	.LVL54-1
 3225 031c 22000000 		.4byte	.LVL56
 3226 0320 0100     		.2byte	0x1
 3227 0322 54       		.byte	0x54
 3228 0323 22000000 		.4byte	.LVL56
 3229 0327 28000000 		.4byte	.LFE21
 3230 032b 0400     		.2byte	0x4
 3231 032d F3       		.byte	0xf3
 3232 032e 01       		.uleb128 0x1
 3233 032f 50       		.byte	0x50
 3234 0330 9F       		.byte	0x9f
 3235 0331 00000000 		.4byte	0
 3236 0335 00000000 		.4byte	0
 3237              	.LLST26:
 3238 0339 08000000 		.4byte	.LVL54
 3239 033d 21000000 		.4byte	.LVL55-1
 3240 0341 0100     		.2byte	0x1
 3241 0343 50       		.byte	0x50
 3242 0344 00000000 		.4byte	0
 3243 0348 00000000 		.4byte	0
 3244              	.LLST27:
 3245 034c 00000000 		.4byte	.LVL57
 3246 0350 04000000 		.4byte	.LVL58
 3247 0354 0100     		.2byte	0x1
 3248 0356 50       		.byte	0x50
 3249 0357 04000000 		.4byte	.LVL58
 3250 035b 0C000000 		.4byte	.LFE22
 3251 035f 0400     		.2byte	0x4
 3252 0361 F3       		.byte	0xf3
 3253 0362 01       		.uleb128 0x1
 3254 0363 50       		.byte	0x50
 3255 0364 9F       		.byte	0x9f
 3256 0365 00000000 		.4byte	0
 3257 0369 00000000 		.4byte	0
 3258              	.LLST28:
 3259 036d 00000000 		.4byte	.LVL59
 3260 0371 04000000 		.4byte	.LVL60
 3261 0375 0100     		.2byte	0x1
 3262 0377 50       		.byte	0x50
 3263 0378 04000000 		.4byte	.LVL60
 3264 037c 0C000000 		.4byte	.LFE24
 3265 0380 0400     		.2byte	0x4
 3266 0382 F3       		.byte	0xf3
 3267 0383 01       		.uleb128 0x1
 3268 0384 50       		.byte	0x50
 3269 0385 9F       		.byte	0x9f
 3270 0386 00000000 		.4byte	0
 3271 038a 00000000 		.4byte	0
 3272              	.LLST29:
 3273 038e 00000000 		.4byte	.LVL61
 3274 0392 07000000 		.4byte	.LVL62-1
ARM GAS  C:\Users\gizmo\AppData\Local\Temp\cc1VMdzg.s 			page 87


 3275 0396 0100     		.2byte	0x1
 3276 0398 50       		.byte	0x50
 3277 0399 07000000 		.4byte	.LVL62-1
 3278 039d 1C000000 		.4byte	.LVL64
 3279 03a1 0100     		.2byte	0x1
 3280 03a3 54       		.byte	0x54
 3281 03a4 1C000000 		.4byte	.LVL64
 3282 03a8 24000000 		.4byte	.LFE28
 3283 03ac 0400     		.2byte	0x4
 3284 03ae F3       		.byte	0xf3
 3285 03af 01       		.uleb128 0x1
 3286 03b0 50       		.byte	0x50
 3287 03b1 9F       		.byte	0x9f
 3288 03b2 00000000 		.4byte	0
 3289 03b6 00000000 		.4byte	0
 3290              	.LLST30:
 3291 03ba 08000000 		.4byte	.LVL62
 3292 03be 1B000000 		.4byte	.LVL63-1
 3293 03c2 0100     		.2byte	0x1
 3294 03c4 50       		.byte	0x50
 3295 03c5 00000000 		.4byte	0
 3296 03c9 00000000 		.4byte	0
 3297              	.LLST31:
 3298 03cd 00000000 		.4byte	.LVL65
 3299 03d1 07000000 		.4byte	.LVL66-1
 3300 03d5 0100     		.2byte	0x1
 3301 03d7 50       		.byte	0x50
 3302 03d8 07000000 		.4byte	.LVL66-1
 3303 03dc 1E000000 		.4byte	.LVL68
 3304 03e0 0100     		.2byte	0x1
 3305 03e2 54       		.byte	0x54
 3306 03e3 1E000000 		.4byte	.LVL68
 3307 03e7 24000000 		.4byte	.LFE29
 3308 03eb 0400     		.2byte	0x4
 3309 03ed F3       		.byte	0xf3
 3310 03ee 01       		.uleb128 0x1
 3311 03ef 50       		.byte	0x50
 3312 03f0 9F       		.byte	0x9f
 3313 03f1 00000000 		.4byte	0
 3314 03f5 00000000 		.4byte	0
 3315              	.LLST32:
 3316 03f9 08000000 		.4byte	.LVL66
 3317 03fd 1D000000 		.4byte	.LVL67-1
 3318 0401 0100     		.2byte	0x1
 3319 0403 50       		.byte	0x50
 3320 0404 00000000 		.4byte	0
 3321 0408 00000000 		.4byte	0
 3322              	.LLST33:
 3323 040c 00000000 		.4byte	.LVL69
 3324 0410 07000000 		.4byte	.LVL70-1
 3325 0414 0100     		.2byte	0x1
 3326 0416 50       		.byte	0x50
 3327 0417 07000000 		.4byte	.LVL70-1
 3328 041b 1E000000 		.4byte	.LVL72
 3329 041f 0100     		.2byte	0x1
 3330 0421 54       		.byte	0x54
 3331 0422 1E000000 		.4byte	.LVL72
ARM GAS  C:\Users\gizmo\AppData\Local\Temp\cc1VMdzg.s 			page 88


 3332 0426 28000000 		.4byte	.LFE30
 3333 042a 0400     		.2byte	0x4
 3334 042c F3       		.byte	0xf3
 3335 042d 01       		.uleb128 0x1
 3336 042e 50       		.byte	0x50
 3337 042f 9F       		.byte	0x9f
 3338 0430 00000000 		.4byte	0
 3339 0434 00000000 		.4byte	0
 3340              	.LLST34:
 3341 0438 08000000 		.4byte	.LVL70
 3342 043c 1D000000 		.4byte	.LVL71-1
 3343 0440 0100     		.2byte	0x1
 3344 0442 50       		.byte	0x50
 3345 0443 00000000 		.4byte	0
 3346 0447 00000000 		.4byte	0
 3347              	.LLST35:
 3348 044b 00000000 		.4byte	.LVL73
 3349 044f 07000000 		.4byte	.LVL74-1
 3350 0453 0100     		.2byte	0x1
 3351 0455 50       		.byte	0x50
 3352 0456 07000000 		.4byte	.LVL74-1
 3353 045a 1E000000 		.4byte	.LVL76
 3354 045e 0100     		.2byte	0x1
 3355 0460 54       		.byte	0x54
 3356 0461 1E000000 		.4byte	.LVL76
 3357 0465 24000000 		.4byte	.LFE31
 3358 0469 0400     		.2byte	0x4
 3359 046b F3       		.byte	0xf3
 3360 046c 01       		.uleb128 0x1
 3361 046d 50       		.byte	0x50
 3362 046e 9F       		.byte	0x9f
 3363 046f 00000000 		.4byte	0
 3364 0473 00000000 		.4byte	0
 3365              	.LLST36:
 3366 0477 08000000 		.4byte	.LVL74
 3367 047b 1D000000 		.4byte	.LVL75-1
 3368 047f 0100     		.2byte	0x1
 3369 0481 50       		.byte	0x50
 3370 0482 00000000 		.4byte	0
 3371 0486 00000000 		.4byte	0
 3372              	.LLST37:
 3373 048a 00000000 		.4byte	.LVL77
 3374 048e 07000000 		.4byte	.LVL78-1
 3375 0492 0100     		.2byte	0x1
 3376 0494 50       		.byte	0x50
 3377 0495 07000000 		.4byte	.LVL78-1
 3378 0499 1E000000 		.4byte	.LVL80
 3379 049d 0100     		.2byte	0x1
 3380 049f 54       		.byte	0x54
 3381 04a0 1E000000 		.4byte	.LVL80
 3382 04a4 24000000 		.4byte	.LFE32
 3383 04a8 0400     		.2byte	0x4
 3384 04aa F3       		.byte	0xf3
 3385 04ab 01       		.uleb128 0x1
 3386 04ac 50       		.byte	0x50
 3387 04ad 9F       		.byte	0x9f
 3388 04ae 00000000 		.4byte	0
ARM GAS  C:\Users\gizmo\AppData\Local\Temp\cc1VMdzg.s 			page 89


 3389 04b2 00000000 		.4byte	0
 3390              	.LLST38:
 3391 04b6 08000000 		.4byte	.LVL78
 3392 04ba 1D000000 		.4byte	.LVL79-1
 3393 04be 0100     		.2byte	0x1
 3394 04c0 50       		.byte	0x50
 3395 04c1 00000000 		.4byte	0
 3396 04c5 00000000 		.4byte	0
 3397              	.LLST39:
 3398 04c9 00000000 		.4byte	.LVL81
 3399 04cd 0B000000 		.4byte	.LVL82-1
 3400 04d1 0100     		.2byte	0x1
 3401 04d3 50       		.byte	0x50
 3402 04d4 0B000000 		.4byte	.LVL82-1
 3403 04d8 1C000000 		.4byte	.LFE33
 3404 04dc 0400     		.2byte	0x4
 3405 04de F3       		.byte	0xf3
 3406 04df 01       		.uleb128 0x1
 3407 04e0 50       		.byte	0x50
 3408 04e1 9F       		.byte	0x9f
 3409 04e2 00000000 		.4byte	0
 3410 04e6 00000000 		.4byte	0
 3411              	.LLST40:
 3412 04ea 00000000 		.4byte	.LVL81
 3413 04ee 0B000000 		.4byte	.LVL82-1
 3414 04f2 0100     		.2byte	0x1
 3415 04f4 51       		.byte	0x51
 3416 04f5 0B000000 		.4byte	.LVL82-1
 3417 04f9 14000000 		.4byte	.LVL84
 3418 04fd 0100     		.2byte	0x1
 3419 04ff 55       		.byte	0x55
 3420 0500 14000000 		.4byte	.LVL84
 3421 0504 1C000000 		.4byte	.LFE33
 3422 0508 0400     		.2byte	0x4
 3423 050a F3       		.byte	0xf3
 3424 050b 01       		.uleb128 0x1
 3425 050c 51       		.byte	0x51
 3426 050d 9F       		.byte	0x9f
 3427 050e 00000000 		.4byte	0
 3428 0512 00000000 		.4byte	0
 3429              	.LLST41:
 3430 0516 0C000000 		.4byte	.LVL82
 3431 051a 13000000 		.4byte	.LVL83-1
 3432 051e 0100     		.2byte	0x1
 3433 0520 50       		.byte	0x50
 3434 0521 00000000 		.4byte	0
 3435 0525 00000000 		.4byte	0
 3436              	.LLST42:
 3437 0529 08000000 		.4byte	.LVL85
 3438 052d 13000000 		.4byte	.LVL86-1
 3439 0531 0100     		.2byte	0x1
 3440 0533 50       		.byte	0x50
 3441 0534 00000000 		.4byte	0
 3442 0538 00000000 		.4byte	0
 3443              		.section	.debug_aranges,"",%progbits
 3444 0000 54010000 		.4byte	0x154
 3445 0004 0200     		.2byte	0x2
ARM GAS  C:\Users\gizmo\AppData\Local\Temp\cc1VMdzg.s 			page 90


 3446 0006 00000000 		.4byte	.Ldebug_info0
 3447 000a 04       		.byte	0x4
 3448 000b 00       		.byte	0
 3449 000c 0000     		.2byte	0
 3450 000e 0000     		.2byte	0
 3451 0010 00000000 		.4byte	.LFB0
 3452 0014 3C000000 		.4byte	.LFE0-.LFB0
 3453 0018 00000000 		.4byte	.LFB3
 3454 001c 1C000000 		.4byte	.LFE3-.LFB3
 3455 0020 00000000 		.4byte	.LFB4
 3456 0024 28000000 		.4byte	.LFE4-.LFB4
 3457 0028 00000000 		.4byte	.LFB5
 3458 002c 28000000 		.4byte	.LFE5-.LFB5
 3459 0030 00000000 		.4byte	.LFB6
 3460 0034 28000000 		.4byte	.LFE6-.LFB6
 3461 0038 00000000 		.4byte	.LFB7
 3462 003c 2C000000 		.4byte	.LFE7-.LFB7
 3463 0040 00000000 		.4byte	.LFB8
 3464 0044 10000000 		.4byte	.LFE8-.LFB8
 3465 0048 00000000 		.4byte	.LFB9
 3466 004c 28000000 		.4byte	.LFE9-.LFB9
 3467 0050 00000000 		.4byte	.LFB10
 3468 0054 28000000 		.4byte	.LFE10-.LFB10
 3469 0058 00000000 		.4byte	.LFB11
 3470 005c 2C000000 		.4byte	.LFE11-.LFB11
 3471 0060 00000000 		.4byte	.LFB12
 3472 0064 28000000 		.4byte	.LFE12-.LFB12
 3473 0068 00000000 		.4byte	.LFB13
 3474 006c 0C000000 		.4byte	.LFE13-.LFB13
 3475 0070 00000000 		.4byte	.LFB14
 3476 0074 0C000000 		.4byte	.LFE14-.LFB14
 3477 0078 00000000 		.4byte	.LFB15
 3478 007c 28000000 		.4byte	.LFE15-.LFB15
 3479 0080 00000000 		.4byte	.LFB16
 3480 0084 0C000000 		.4byte	.LFE16-.LFB16
 3481 0088 00000000 		.4byte	.LFB17
 3482 008c 0C000000 		.4byte	.LFE17-.LFB17
 3483 0090 00000000 		.4byte	.LFB18
 3484 0094 24000000 		.4byte	.LFE18-.LFB18
 3485 0098 00000000 		.4byte	.LFB19
 3486 009c 0C000000 		.4byte	.LFE19-.LFB19
 3487 00a0 00000000 		.4byte	.LFB20
 3488 00a4 0C000000 		.4byte	.LFE20-.LFB20
 3489 00a8 00000000 		.4byte	.LFB21
 3490 00ac 28000000 		.4byte	.LFE21-.LFB21
 3491 00b0 00000000 		.4byte	.LFB22
 3492 00b4 0C000000 		.4byte	.LFE22-.LFB22
 3493 00b8 00000000 		.4byte	.LFB23
 3494 00bc 0C000000 		.4byte	.LFE23-.LFB23
 3495 00c0 00000000 		.4byte	.LFB24
 3496 00c4 0C000000 		.4byte	.LFE24-.LFB24
 3497 00c8 00000000 		.4byte	.LFB25
 3498 00cc 0C000000 		.4byte	.LFE25-.LFB25
 3499 00d0 00000000 		.4byte	.LFB26
 3500 00d4 0C000000 		.4byte	.LFE26-.LFB26
 3501 00d8 00000000 		.4byte	.LFB27
 3502 00dc 0C000000 		.4byte	.LFE27-.LFB27
ARM GAS  C:\Users\gizmo\AppData\Local\Temp\cc1VMdzg.s 			page 91


 3503 00e0 00000000 		.4byte	.LFB28
 3504 00e4 24000000 		.4byte	.LFE28-.LFB28
 3505 00e8 00000000 		.4byte	.LFB29
 3506 00ec 24000000 		.4byte	.LFE29-.LFB29
 3507 00f0 00000000 		.4byte	.LFB30
 3508 00f4 28000000 		.4byte	.LFE30-.LFB30
 3509 00f8 00000000 		.4byte	.LFB31
 3510 00fc 24000000 		.4byte	.LFE31-.LFB31
 3511 0100 00000000 		.4byte	.LFB32
 3512 0104 24000000 		.4byte	.LFE32-.LFB32
 3513 0108 00000000 		.4byte	.LFB33
 3514 010c 1C000000 		.4byte	.LFE33-.LFB33
 3515 0110 00000000 		.4byte	.LFB1
 3516 0114 24000000 		.4byte	.LFE1-.LFB1
 3517 0118 00000000 		.4byte	.LFB2
 3518 011c 1C000000 		.4byte	.LFE2-.LFB2
 3519 0120 00000000 		.4byte	.LFB34
 3520 0124 14000000 		.4byte	.LFE34-.LFB34
 3521 0128 00000000 		.4byte	.LFB35
 3522 012c 0C000000 		.4byte	.LFE35-.LFB35
 3523 0130 00000000 		.4byte	.LFB36
 3524 0134 0C000000 		.4byte	.LFE36-.LFB36
 3525 0138 00000000 		.4byte	.LFB37
 3526 013c 0C000000 		.4byte	.LFE37-.LFB37
 3527 0140 00000000 		.4byte	.LFB38
 3528 0144 0C000000 		.4byte	.LFE38-.LFB38
 3529 0148 00000000 		.4byte	.LFB39
 3530 014c 0C000000 		.4byte	.LFE39-.LFB39
 3531 0150 00000000 		.4byte	0
 3532 0154 00000000 		.4byte	0
 3533              		.section	.debug_ranges,"",%progbits
 3534              	.Ldebug_ranges0:
 3535 0000 00000000 		.4byte	.LFB0
 3536 0004 3C000000 		.4byte	.LFE0
 3537 0008 00000000 		.4byte	.LFB3
 3538 000c 1C000000 		.4byte	.LFE3
 3539 0010 00000000 		.4byte	.LFB4
 3540 0014 28000000 		.4byte	.LFE4
 3541 0018 00000000 		.4byte	.LFB5
 3542 001c 28000000 		.4byte	.LFE5
 3543 0020 00000000 		.4byte	.LFB6
 3544 0024 28000000 		.4byte	.LFE6
 3545 0028 00000000 		.4byte	.LFB7
 3546 002c 2C000000 		.4byte	.LFE7
 3547 0030 00000000 		.4byte	.LFB8
 3548 0034 10000000 		.4byte	.LFE8
 3549 0038 00000000 		.4byte	.LFB9
 3550 003c 28000000 		.4byte	.LFE9
 3551 0040 00000000 		.4byte	.LFB10
 3552 0044 28000000 		.4byte	.LFE10
 3553 0048 00000000 		.4byte	.LFB11
 3554 004c 2C000000 		.4byte	.LFE11
 3555 0050 00000000 		.4byte	.LFB12
 3556 0054 28000000 		.4byte	.LFE12
 3557 0058 00000000 		.4byte	.LFB13
 3558 005c 0C000000 		.4byte	.LFE13
 3559 0060 00000000 		.4byte	.LFB14
ARM GAS  C:\Users\gizmo\AppData\Local\Temp\cc1VMdzg.s 			page 92


 3560 0064 0C000000 		.4byte	.LFE14
 3561 0068 00000000 		.4byte	.LFB15
 3562 006c 28000000 		.4byte	.LFE15
 3563 0070 00000000 		.4byte	.LFB16
 3564 0074 0C000000 		.4byte	.LFE16
 3565 0078 00000000 		.4byte	.LFB17
 3566 007c 0C000000 		.4byte	.LFE17
 3567 0080 00000000 		.4byte	.LFB18
 3568 0084 24000000 		.4byte	.LFE18
 3569 0088 00000000 		.4byte	.LFB19
 3570 008c 0C000000 		.4byte	.LFE19
 3571 0090 00000000 		.4byte	.LFB20
 3572 0094 0C000000 		.4byte	.LFE20
 3573 0098 00000000 		.4byte	.LFB21
 3574 009c 28000000 		.4byte	.LFE21
 3575 00a0 00000000 		.4byte	.LFB22
 3576 00a4 0C000000 		.4byte	.LFE22
 3577 00a8 00000000 		.4byte	.LFB23
 3578 00ac 0C000000 		.4byte	.LFE23
 3579 00b0 00000000 		.4byte	.LFB24
 3580 00b4 0C000000 		.4byte	.LFE24
 3581 00b8 00000000 		.4byte	.LFB25
 3582 00bc 0C000000 		.4byte	.LFE25
 3583 00c0 00000000 		.4byte	.LFB26
 3584 00c4 0C000000 		.4byte	.LFE26
 3585 00c8 00000000 		.4byte	.LFB27
 3586 00cc 0C000000 		.4byte	.LFE27
 3587 00d0 00000000 		.4byte	.LFB28
 3588 00d4 24000000 		.4byte	.LFE28
 3589 00d8 00000000 		.4byte	.LFB29
 3590 00dc 24000000 		.4byte	.LFE29
 3591 00e0 00000000 		.4byte	.LFB30
 3592 00e4 28000000 		.4byte	.LFE30
 3593 00e8 00000000 		.4byte	.LFB31
 3594 00ec 24000000 		.4byte	.LFE31
 3595 00f0 00000000 		.4byte	.LFB32
 3596 00f4 24000000 		.4byte	.LFE32
 3597 00f8 00000000 		.4byte	.LFB33
 3598 00fc 1C000000 		.4byte	.LFE33
 3599 0100 00000000 		.4byte	.LFB1
 3600 0104 24000000 		.4byte	.LFE1
 3601 0108 00000000 		.4byte	.LFB2
 3602 010c 1C000000 		.4byte	.LFE2
 3603 0110 00000000 		.4byte	.LFB34
 3604 0114 14000000 		.4byte	.LFE34
 3605 0118 00000000 		.4byte	.LFB35
 3606 011c 0C000000 		.4byte	.LFE35
 3607 0120 00000000 		.4byte	.LFB36
 3608 0124 0C000000 		.4byte	.LFE36
 3609 0128 00000000 		.4byte	.LFB37
 3610 012c 0C000000 		.4byte	.LFE37
 3611 0130 00000000 		.4byte	.LFB38
 3612 0134 0C000000 		.4byte	.LFE38
 3613 0138 00000000 		.4byte	.LFB39
 3614 013c 0C000000 		.4byte	.LFE39
 3615 0140 00000000 		.4byte	0
 3616 0144 00000000 		.4byte	0
ARM GAS  C:\Users\gizmo\AppData\Local\Temp\cc1VMdzg.s 			page 93


 3617              		.section	.debug_line,"",%progbits
 3618              	.Ldebug_line0:
 3619 0000 E1030000 		.section	.debug_str,"MS",%progbits,1
 3619      02005100 
 3619      00000201 
 3619      FB0E0D00 
 3619      01010101 
 3620              	.LASF21:
 3621 0000 636F756E 		.ascii	"count\000"
 3621      7400
 3622              	.LASF76:
 3623 0006 474E5520 		.ascii	"GNU C 4.9.3 20150303 (release) [ARM/embedded-4_9-br"
 3623      4320342E 
 3623      392E3320 
 3623      32303135 
 3623      30333033 
 3624 0039 616E6368 		.ascii	"anch revision 221220] -mcpu=cortex-m0 -mthumb -g -O"
 3624      20726576 
 3624      6973696F 
 3624      6E203232 
 3624      31323230 
 3625 006c 73202D66 		.ascii	"s -ffunction-sections -ffat-lto-objects\000"
 3625      66756E63 
 3625      74696F6E 
 3625      2D736563 
 3625      74696F6E 
 3626              	.LASF81:
 3627 0094 43794578 		.ascii	"CyExitCriticalSection\000"
 3627      69744372 
 3627      69746963 
 3627      616C5365 
 3627      6374696F 
 3628              	.LASF66:
 3629 00aa 54696D65 		.ascii	"Timer_1_SetCountMode\000"
 3629      725F315F 
 3629      53657443 
 3629      6F756E74 
 3629      4D6F6465 
 3630              	.LASF47:
 3631 00bf 54696D65 		.ascii	"Timer_1_SetCompareSwap\000"
 3631      725F315F 
 3631      53657443 
 3631      6F6D7061 
 3631      72655377 
 3632              	.LASF19:
 3633 00d6 70657269 		.ascii	"period\000"
 3633      6F6400
 3634              	.LASF77:
 3635 00dd 2E5C4765 		.ascii	".\\Generated_Source\\PSoC4\\Timer_1.c\000"
 3635      6E657261 
 3635      7465645F 
 3635      536F7572 
 3635      63655C50 
 3636              	.LASF7:
 3637 0100 6C6F6E67 		.ascii	"long long unsigned int\000"
 3637      206C6F6E 
 3637      6720756E 
ARM GAS  C:\Users\gizmo\AppData\Local\Temp\cc1VMdzg.s 			page 94


 3637      7369676E 
 3637      65642069 
 3638              	.LASF22:
 3639 0117 54696D65 		.ascii	"Timer_1_Init\000"
 3639      725F315F 
 3639      496E6974 
 3639      00
 3640              	.LASF28:
 3641 0124 71644D6F 		.ascii	"qdMode\000"
 3641      646500
 3642              	.LASF51:
 3643 012b 54696D65 		.ascii	"Timer_1_ReadPeriodBuf\000"
 3643      725F315F 
 3643      52656164 
 3643      50657269 
 3643      6F644275 
 3644              	.LASF6:
 3645 0141 6C6F6E67 		.ascii	"long long int\000"
 3645      206C6F6E 
 3645      6720696E 
 3645      7400
 3646              	.LASF0:
 3647 014f 7369676E 		.ascii	"signed char\000"
 3647      65642063 
 3647      68617200 
 3648              	.LASF49:
 3649 015b 54696D65 		.ascii	"Timer_1_WritePeriodBuf\000"
 3649      725F315F 
 3649      57726974 
 3649      65506572 
 3649      696F6442 
 3650              	.LASF17:
 3651 0172 54696D65 		.ascii	"Timer_1_WritePeriod\000"
 3651      725F315F 
 3651      57726974 
 3651      65506572 
 3651      696F6400 
 3652              	.LASF4:
 3653 0186 6C6F6E67 		.ascii	"long int\000"
 3653      20696E74 
 3653      00
 3654              	.LASF57:
 3655 018f 636F6D70 		.ascii	"compareBuf\000"
 3655      61726542 
 3655      756600
 3656              	.LASF9:
 3657 019a 75696E74 		.ascii	"uint8\000"
 3657      3800
 3658              	.LASF12:
 3659 01a0 646F7562 		.ascii	"double\000"
 3659      6C6500
 3660              	.LASF20:
 3661 01a7 54696D65 		.ascii	"Timer_1_WriteCounter\000"
 3661      725F315F 
 3661      57726974 
 3661      65436F75 
 3661      6E746572 
ARM GAS  C:\Users\gizmo\AppData\Local\Temp\cc1VMdzg.s 			page 95


 3662              	.LASF37:
 3663 01bc 54696D65 		.ascii	"Timer_1_SetPWMStopOnKill\000"
 3663      725F315F 
 3663      53657450 
 3663      574D5374 
 3663      6F704F6E 
 3664              	.LASF60:
 3665 01d5 54696D65 		.ascii	"Timer_1_ReadCaptureBuf\000"
 3665      725F315F 
 3665      52656164 
 3665      43617074 
 3665      75726542 
 3666              	.LASF10:
 3667 01ec 75696E74 		.ascii	"uint32\000"
 3667      333200
 3668              	.LASF62:
 3669 01f3 74726967 		.ascii	"triggerMode\000"
 3669      6765724D 
 3669      6F646500 
 3670              	.LASF53:
 3671 01ff 54696D65 		.ascii	"Timer_1_WriteCompare\000"
 3671      725F315F 
 3671      57726974 
 3671      65436F6D 
 3671      70617265 
 3672              	.LASF42:
 3673 0214 6D61736B 		.ascii	"mask\000"
 3673      00
 3674              	.LASF40:
 3675 0219 64656164 		.ascii	"deadTime\000"
 3675      54696D65 
 3675      00
 3676              	.LASF79:
 3677 0222 54696D65 		.ascii	"Timer_1_initVar\000"
 3677      725F315F 
 3677      696E6974 
 3677      56617200 
 3678              	.LASF8:
 3679 0232 756E7369 		.ascii	"unsigned int\000"
 3679      676E6564 
 3679      20696E74 
 3679      00
 3680              	.LASF59:
 3681 023f 54696D65 		.ascii	"Timer_1_ReadCapture\000"
 3681      725F315F 
 3681      52656164 
 3681      43617074 
 3681      75726500 
 3682              	.LASF68:
 3683 0253 636F6D6D 		.ascii	"command\000"
 3683      616E6400 
 3684              	.LASF5:
 3685 025b 6C6F6E67 		.ascii	"long unsigned int\000"
 3685      20756E73 
 3685      69676E65 
 3685      6420696E 
 3685      7400
ARM GAS  C:\Users\gizmo\AppData\Local\Temp\cc1VMdzg.s 			page 96


 3686              	.LASF34:
 3687 026d 6D6F6465 		.ascii	"modeMask\000"
 3687      4D61736B 
 3687      00
 3688              	.LASF70:
 3689 0276 54696D65 		.ascii	"Timer_1_Start\000"
 3689      725F315F 
 3689      53746172 
 3689      7400
 3690              	.LASF80:
 3691 0284 4379456E 		.ascii	"CyEnterCriticalSection\000"
 3691      74657243 
 3691      72697469 
 3691      63616C53 
 3691      65637469 
 3692              	.LASF23:
 3693 029b 54696D65 		.ascii	"Timer_1_Stop\000"
 3693      725F315F 
 3693      53746F70 
 3693      00
 3694              	.LASF41:
 3695 02a8 54696D65 		.ascii	"Timer_1_SetPWMInvert\000"
 3695      725F315F 
 3695      53657450 
 3695      574D496E 
 3695      76657274 
 3696              	.LASF43:
 3697 02bd 54696D65 		.ascii	"Timer_1_SetCounterMode\000"
 3697      725F315F 
 3697      53657443 
 3697      6F756E74 
 3697      65724D6F 
 3698              	.LASF3:
 3699 02d4 73686F72 		.ascii	"short unsigned int\000"
 3699      7420756E 
 3699      7369676E 
 3699      65642069 
 3699      6E7400
 3700              	.LASF64:
 3701 02e7 54696D65 		.ascii	"Timer_1_SetStartMode\000"
 3701      725F315F 
 3701      53657453 
 3701      74617274 
 3701      4D6F6465 
 3702              	.LASF72:
 3703 02fc 54696D65 		.ascii	"Timer_1_GetInterruptSourceMasked\000"
 3703      725F315F 
 3703      47657449 
 3703      6E746572 
 3703      72757074 
 3704              	.LASF31:
 3705 031d 54696D65 		.ascii	"Timer_1_SetOneShot\000"
 3705      725F315F 
 3705      5365744F 
 3705      6E655368 
 3705      6F7400
 3706              	.LASF32:
ARM GAS  C:\Users\gizmo\AppData\Local\Temp\cc1VMdzg.s 			page 97


 3707 0330 6F6E6553 		.ascii	"oneShotEnable\000"
 3707      686F7445 
 3707      6E61626C 
 3707      6500
 3708              	.LASF24:
 3709 033e 54696D65 		.ascii	"Timer_1_SetMode\000"
 3709      725F315F 
 3709      5365744D 
 3709      6F646500 
 3710              	.LASF2:
 3711 034e 73686F72 		.ascii	"short int\000"
 3711      7420696E 
 3711      7400
 3712              	.LASF71:
 3713 0358 54696D65 		.ascii	"Timer_1_ReadStatus\000"
 3713      725F315F 
 3713      52656164 
 3713      53746174 
 3713      757300
 3714              	.LASF14:
 3715 036b 72656733 		.ascii	"reg32\000"
 3715      3200
 3716              	.LASF15:
 3717 0371 73697A65 		.ascii	"sizetype\000"
 3717      74797065 
 3717      00
 3718              	.LASF61:
 3719 037a 54696D65 		.ascii	"Timer_1_SetCaptureMode\000"
 3719      725F315F 
 3719      53657443 
 3719      61707475 
 3719      72654D6F 
 3720              	.LASF26:
 3721 0391 54696D65 		.ascii	"Timer_1_SetQDMode\000"
 3721      725F315F 
 3721      53657451 
 3721      444D6F64 
 3721      6500
 3722              	.LASF63:
 3723 03a3 54696D65 		.ascii	"Timer_1_SetReloadMode\000"
 3723      725F315F 
 3723      53657452 
 3723      656C6F61 
 3723      644D6F64 
 3724              	.LASF52:
 3725 03b9 54696D65 		.ascii	"Timer_1_SetPeriodSwap\000"
 3725      725F315F 
 3725      53657450 
 3725      6572696F 
 3725      64537761 
 3726              	.LASF54:
 3727 03cf 636F6D70 		.ascii	"compare\000"
 3727      61726500 
 3728              	.LASF29:
 3729 03d7 54696D65 		.ascii	"Timer_1_SetPrescaler\000"
 3729      725F315F 
 3729      53657450 
ARM GAS  C:\Users\gizmo\AppData\Local\Temp\cc1VMdzg.s 			page 98


 3729      72657363 
 3729      616C6572 
 3730              	.LASF45:
 3731 03ec 54696D65 		.ascii	"Timer_1_ReadCounter\000"
 3731      725F315F 
 3731      52656164 
 3731      436F756E 
 3731      74657200 
 3732              	.LASF74:
 3733 0400 54696D65 		.ascii	"Timer_1_ClearInterrupt\000"
 3733      725F315F 
 3733      436C6561 
 3733      72496E74 
 3733      65727275 
 3734              	.LASF11:
 3735 0417 666C6F61 		.ascii	"float\000"
 3735      7400
 3736              	.LASF30:
 3737 041d 70726573 		.ascii	"prescaler\000"
 3737      63616C65 
 3737      7200
 3738              	.LASF56:
 3739 0427 54696D65 		.ascii	"Timer_1_WriteCompareBuf\000"
 3739      725F315F 
 3739      57726974 
 3739      65436F6D 
 3739      70617265 
 3740              	.LASF69:
 3741 043f 54696D65 		.ascii	"Timer_1_Enable\000"
 3741      725F315F 
 3741      456E6162 
 3741      6C6500
 3742              	.LASF58:
 3743 044e 54696D65 		.ascii	"Timer_1_ReadCompareBuf\000"
 3743      725F315F 
 3743      52656164 
 3743      436F6D70 
 3743      61726542 
 3744              	.LASF1:
 3745 0465 756E7369 		.ascii	"unsigned char\000"
 3745      676E6564 
 3745      20636861 
 3745      7200
 3746              	.LASF38:
 3747 0473 73746F70 		.ascii	"stopOnKillEnable\000"
 3747      4F6E4B69 
 3747      6C6C456E 
 3747      61626C65 
 3747      00
 3748              	.LASF46:
 3749 0484 54696D65 		.ascii	"Timer_1_ReadPeriod\000"
 3749      725F315F 
 3749      52656164 
 3749      50657269 
 3749      6F6400
 3750              	.LASF78:
 3751 0497 443A5C55 		.ascii	"D:\\Users\\gizmo\\Documents\\Develop\\Rhythm Machin"
ARM GAS  C:\Users\gizmo\AppData\Local\Temp\cc1VMdzg.s 			page 99


 3751      73657273 
 3751      5C67697A 
 3751      6D6F5C44 
 3751      6F63756D 
 3752 04c5 655C5053 		.ascii	"e\\PSoC\\PSoC_Fixedpoint_DDS_RhythmMachine\\PSoC_Fi"
 3752      6F435C50 
 3752      536F435F 
 3752      46697865 
 3752      64706F69 
 3753 04f5 78656470 		.ascii	"xedpoint_DDS_RhythmMachine_Test01.cydsn\000"
 3753      6F696E74 
 3753      5F444453 
 3753      5F526879 
 3753      74686D4D 
 3754              	.LASF18:
 3755 051d 696E7465 		.ascii	"interruptMask\000"
 3755      72727570 
 3755      744D6173 
 3755      6B00
 3756              	.LASF39:
 3757 052b 54696D65 		.ascii	"Timer_1_SetPWMDeadTime\000"
 3757      725F315F 
 3757      53657450 
 3757      574D4465 
 3757      61645469 
 3758              	.LASF35:
 3759 0542 54696D65 		.ascii	"Timer_1_SetPWMSyncKill\000"
 3759      725F315F 
 3759      53657450 
 3759      574D5379 
 3759      6E634B69 
 3760              	.LASF65:
 3761 0559 54696D65 		.ascii	"Timer_1_SetStopMode\000"
 3761      725F315F 
 3761      53657453 
 3761      746F704D 
 3761      6F646500 
 3762              	.LASF13:
 3763 056d 63686172 		.ascii	"char\000"
 3763      00
 3764              	.LASF27:
 3765 0572 6D6F6465 		.ascii	"mode\000"
 3765      00
 3766              	.LASF55:
 3767 0577 54696D65 		.ascii	"Timer_1_ReadCompare\000"
 3767      725F315F 
 3767      52656164 
 3767      436F6D70 
 3767      61726500 
 3768              	.LASF16:
 3769 058b 54696D65 		.ascii	"Timer_1_SetInterruptMode\000"
 3769      725F315F 
 3769      53657449 
 3769      6E746572 
 3769      72757074 
 3770              	.LASF44:
 3771 05a4 636F756E 		.ascii	"counterMode\000"
ARM GAS  C:\Users\gizmo\AppData\Local\Temp\cc1VMdzg.s 			page 100


 3771      7465724D 
 3771      6F646500 
 3772              	.LASF73:
 3773 05b0 54696D65 		.ascii	"Timer_1_GetInterruptSource\000"
 3773      725F315F 
 3773      47657449 
 3773      6E746572 
 3773      72757074 
 3774              	.LASF33:
 3775 05cb 54696D65 		.ascii	"Timer_1_SetPWMMode\000"
 3775      725F315F 
 3775      53657450 
 3775      574D4D6F 
 3775      646500
 3776              	.LASF67:
 3777 05de 54696D65 		.ascii	"Timer_1_TriggerCommand\000"
 3777      725F315F 
 3777      54726967 
 3777      67657243 
 3777      6F6D6D61 
 3778              	.LASF25:
 3779 05f5 656E6162 		.ascii	"enableInterrupts\000"
 3779      6C65496E 
 3779      74657272 
 3779      75707473 
 3779      00
 3780              	.LASF75:
 3781 0606 54696D65 		.ascii	"Timer_1_SetInterrupt\000"
 3781      725F315F 
 3781      53657449 
 3781      6E746572 
 3781      72757074 
 3782              	.LASF36:
 3783 061b 73796E63 		.ascii	"syncKillEnable\000"
 3783      4B696C6C 
 3783      456E6162 
 3783      6C6500
 3784              	.LASF48:
 3785 062a 73776170 		.ascii	"swapEnable\000"
 3785      456E6162 
 3785      6C6500
 3786              	.LASF50:
 3787 0635 70657269 		.ascii	"periodBuf\000"
 3787      6F644275 
 3787      6600
 3788              		.ident	"GCC: (GNU Tools for ARM Embedded Processors) 4.9.3 20150303 (release) [ARM/embedded-4_9-br
